# mark_description "Intel(R) C Intel(R) 64 Compiler for applications running on Intel(R) 64, Version 17.0.2.174 Build 20170213";
# mark_description "-I../utilities/tclap/include/ -std=c++14 -xCORE-AVX2 -lrt -DUSE_BLAS -DENABLE_VERIFICATION -mkl -DUME_USE_SV";
# mark_description "ML -O2 -S";
	.file "RK4Bench.cpp"
	.text
..TXTST0:
# -- Begin  main
	.text
# mark_begin;
       .align    16,0x90
	.globl main
# --- main(int, char **)
main:
# parameter 1: %edi
# parameter 2: %rsi
..B1.1:                         # Preds ..B1.0
                                # Execution count [1.00e+00]
	.cfi_startproc
	.cfi_personality 0x3,__gxx_personality_v0
	.cfi_lsda 0xb, main$$LSDA
..___tag_value_main.28:
..L29:
                                                         #40.1
        pushq     %rbp                                          #40.1
	.cfi_def_cfa_offset 16
        movq      %rsp, %rbp                                    #40.1
	.cfi_def_cfa 6, 16
	.cfi_offset 6, -16
        andq      $-128, %rsp                                   #40.1
        pushq     %r12                                          #40.1
        pushq     %r13                                          #40.1
        pushq     %r14                                          #40.1
        pushq     %r15                                          #40.1
        pushq     %rbx                                          #40.1
        subq      $472, %rsp                                    #40.1
	.cfi_escape 0x10, 0x03, 0x0e, 0x38, 0x1c, 0x0d, 0x80, 0xff, 0xff, 0xff, 0x1a, 0x0d, 0xd8, 0xff, 0xff, 0xff, 0x22
	.cfi_escape 0x10, 0x0c, 0x0e, 0x38, 0x1c, 0x0d, 0x80, 0xff, 0xff, 0xff, 0x1a, 0x0d, 0xf8, 0xff, 0xff, 0xff, 0x22
	.cfi_escape 0x10, 0x0d, 0x0e, 0x38, 0x1c, 0x0d, 0x80, 0xff, 0xff, 0xff, 0x1a, 0x0d, 0xf0, 0xff, 0xff, 0xff, 0x22
	.cfi_escape 0x10, 0x0e, 0x0e, 0x38, 0x1c, 0x0d, 0x80, 0xff, 0xff, 0xff, 0x1a, 0x0d, 0xe8, 0xff, 0xff, 0xff, 0x22
	.cfi_escape 0x10, 0x0f, 0x0e, 0x38, 0x1c, 0x0d, 0x80, 0xff, 0xff, 0xff, 0x1a, 0x0d, 0xe0, 0xff, 0xff, 0xff, 0x22
        movq      %rsi, %r12                                    #40.1
        movl      %edi, %ebx                                    #40.1
        movl      $10330110, %esi                               #40.1
        movl      $3, %edi                                      #40.1
        call      __intel_new_feature_proc_init                 #40.1
                                # LOE r12 ebx
..B1.222:                       # Preds ..B1.1
                                # Execution count [1.00e+00]
        vstmxcsr  (%rsp)                                        #40.1
        movl      %ebx, %esi                                    #41.36
        lea       8(%rsp), %rdi                                 #41.36
        orl       $32832, (%rsp)                                #40.1
        movq      %r12, %rdx                                    #41.36
        vldmxcsr  (%rsp)                                        #40.1
..___tag_value_main.38:
#       BenchmarkHarness::BenchmarkHarness(BenchmarkHarness *, int, char **)
        call      _ZN16BenchmarkHarnessC1EiPPc                  #41.36
..___tag_value_main.39:
                                # LOE
..B1.2:                         # Preds ..B1.222
                                # Execution count [9.00e-01]
        movl      $1, %r13d                                     #47.18
                                # LOE r13d
..B1.3:                         # Preds ..B1.63 ..B1.2
                                # Execution count [5.00e+00]
        movl      $.L_2__STRING.119, %esi                       #49.48
        lea       144(%rsp), %rax                               #49.21
        movq      %rax, -16(%rax)                               #49.21
        addq      $-16, %rsp                                    #49.48
	.cfi_escape 0x2e, 0x10
        movq      %rsp, %rbx                                    #49.48
        lea       144(%rsp), %rdi                               #49.48
        movb      16(%rsp), %cl                                 #49.48
        movl      $.L_2__STRING.119+10, %edx                    #49.48
        movb      %cl, (%rbx)                                   #49.48
..___tag_value_main.41:
#       std::__cxx11::basic_string<char, std::char_traits<char>, std::allocator<char>>::_M_construct<const char *>(std::__cxx11::basic_string<char, std::char_traits<char>, std::allocator<char>> *, const char *, const char *, std::forward_iterator_tag)
        call      _ZNSt7__cxx1112basic_stringIcSt11char_traitsIcESaIcEE12_M_constructIPKcEEvT_S8_St20forward_iterator_tag #49.48
..___tag_value_main.42:
                                # LOE r13d
..B1.4:                         # Preds ..B1.3
                                # Execution count [5.00e+00]
        addq      $16, %rsp                                     #49.48
	.cfi_escape 0x2e, 0x00
                                # LOE r13d
..B1.5:                         # Preds ..B1.4
                                # Execution count [5.00e+00]
        movl      $96, %edi                                     #50.23
..___tag_value_main.44:
#       operator new(std::size_t)
        call      _Znwm                                         #50.23
..___tag_value_main.45:
                                # LOE rax r13d
..B1.6:                         # Preds ..B1.5
                                # Execution count [5.00e+00]
        movq      %rax, %r12                                    #50.23
                                # LOE r12 r13d
..B1.7:                         # Preds ..B1.6
                                # Execution count [5.00e+00]
        movq      128(%rsp), %rsi                               #50.54
        lea       176(%rsp), %rax                               #50.54
        movq      %rax, -16(%rax)                               #50.23
        addq      $-16, %rsp                                    #50.54
	.cfi_escape 0x2e, 0x10
        movq      %rsp, %rbx                                    #50.54
        lea       176(%rsp), %rdi                               #50.54
        movq      -40(%rax), %rdx                               #50.54
        movb      16(%rax), %cl                                 #50.54
        addq      %rsi, %rdx                                    #50.54
        movb      %cl, (%rbx)                                   #50.54
..___tag_value_main.47:
#       std::__cxx11::basic_string<char, std::char_traits<char>, std::allocator<char>>::_M_construct<std::__cxx11::basic_string<char, std::char_traits<char>, std::allocator<char>>::pointer>(std::__cxx11::basic_string<char, std::char_traits<char>, std::allocator<char>> *, std::__cxx11::basic_string<char, std::char_traits<char>, std::allocator<char>>::pointer, std::__cxx11::basic_string<char, std::char_traits<char>, std::allocator<char>>::pointer, std::forward_iterator_tag)
        call      _ZNSt7__cxx1112basic_stringIcSt11char_traitsIcESaIcEE12_M_constructIPcEEvT_S7_St20forward_iterator_tag #50.54
..___tag_value_main.48:
                                # LOE r12 r13d
..B1.8:                         # Preds ..B1.7
                                # Execution count [5.00e+00]
        addq      $16, %rsp                                     #50.54
	.cfi_escape 0x2e, 0x00
                                # LOE r12 r13d
..B1.9:                         # Preds ..B1.8
                                # Execution count [5.00e+00]
        movq      %r12, %rdi                                    #50.54
        lea       160(%rsp), %rsi                               #50.54
..___tag_value_main.50:
#       TestCategory::TestCategory(TestCategory *, std::__cxx11::string *)
        call      _ZN12TestCategoryC1ENSt7__cxx1112basic_stringIcSt11char_traitsIcESaIcEEE #50.54
..___tag_value_main.51:
                                # LOE r12 r13d
..B1.10:                        # Preds ..B1.9
                                # Execution count [5.00e+00]
        movq      160(%rsp), %rdi                               #50.23
        lea       176(%rsp), %rax                               #50.23
        cmpq      %rax, %rdi                                    #50.23
        je        ..B1.12       # Prob 78%                      #50.23
                                # LOE rdi r12 r13d
..B1.11:                        # Preds ..B1.10
                                # Execution count [1.10e+00]
#       operator delete(void *)
        call      _ZdlPv                                        #50.23
                                # LOE r12 r13d
..B1.12:                        # Preds ..B1.11 ..B1.10
                                # Execution count [5.00e+00]
        movl      $48, %edi                                     #51.9
..___tag_value_main.52:
#       operator new(std::size_t)
        call      _Znwm                                         #51.9
..___tag_value_main.53:
                                # LOE rax r12 r13d
..B1.13:                        # Preds ..B1.12
                                # Execution count [5.00e+00]
        movq      %rax, %r15                                    #51.9
                                # LOE r12 r15 r13d
..B1.14:                        # Preds ..B1.13
                                # Execution count [5.00e+00]
        movl      $.L_2__STRING.120, %esi                       #51.76
        lea       176(%rsp), %rax                               #51.9
        movq      %rax, -16(%rax)                               #51.9
        addq      $-16, %rsp                                    #51.76
	.cfi_escape 0x2e, 0x10
        movq      %rsp, %rbx                                    #51.76
        lea       176(%rsp), %rdi                               #51.76
        movb      32(%rax), %cl                                 #51.76
        movl      $.L_2__STRING.120+9, %edx                     #51.76
        movb      $1, %r14b                                     #51.9
        movb      %cl, (%rbx)                                   #51.76
..___tag_value_main.55:
#       std::__cxx11::basic_string<char, std::char_traits<char>, std::allocator<char>>::_M_construct<const char *>(std::__cxx11::basic_string<char, std::char_traits<char>, std::allocator<char>> *, const char *, const char *, std::forward_iterator_tag)
        call      _ZNSt7__cxx1112basic_stringIcSt11char_traitsIcESaIcEE12_M_constructIPKcEEvT_S8_St20forward_iterator_tag #51.76
..___tag_value_main.56:
                                # LOE r12 r15 r13d r14b
..B1.15:                        # Preds ..B1.14
                                # Execution count [5.00e+00]
        addq      $16, %rsp                                     #51.76
	.cfi_escape 0x2e, 0x00
                                # LOE r12 r15 r13d r14b
..B1.16:                        # Preds ..B1.15
                                # Execution count [5.00e+00]
        movq      %r15, %rdi                                    #51.90
        lea       160(%rsp), %rsi                               #51.90
        movl      $64, %edx                                     #51.90
..___tag_value_main.58:
#       ValueParameter<int>::ValueParameter(ValueParameter<int> *, std::__cxx11::string *, int)
        call      _ZN14ValueParameterIiEC1ENSt7__cxx1112basic_stringIcSt11char_traitsIcESaIcEEEi #51.90
..___tag_value_main.59:
                                # LOE r12 r15 r13d r14b
..B1.17:                        # Preds ..B1.16
                                # Execution count [5.00e+00]
        movq      %r15, 256(%rsp)                               #51.22
        lea       64(%r12), %rbx                                #51.22
        movq      %rbx, %rdi                                    #51.22
        lea       256(%rsp), %rsi                               #51.22
        xorb      %r14b, %r14b                                  #51.90
..___tag_value_main.60:
#       std::__cxx11::list<TestParameter *, std::allocator<TestParameter *>>::_M_create_node<const std::__cxx11::list<TestParameter *, std::allocator<TestParameter *>>::value_type &>(std::__cxx11::list<TestParameter *, std::allocator<TestParameter *>> *, const std::__cxx11::list<TestParameter *, std::allocator<TestParameter *>>::value_type &)
        call      _ZNSt7__cxx114listIP13TestParameterSaIS2_EE14_M_create_nodeIJRKS2_EEEPSt10_List_nodeIS2_EDpOT_ #51.22
..___tag_value_main.61:
                                # LOE rax rbx r12 r15 r13d r14b
..B1.19:                        # Preds ..B1.17
                                # Execution count [5.00e+00]
        movq      %rax, %rdi                                    #51.22
        movq      %rbx, %rsi                                    #51.22
#       std::__detail::_List_node_base::_M_hook(std::__detail::_List_node_base *, std::__detail::_List_node_base *)
        call      _ZNSt8__detail15_List_node_base7_M_hookEPS0_  #51.22
                                # LOE rbx r12 r13d
..B1.20:                        # Preds ..B1.19
                                # Execution count [5.00e+00]
        incq      16(%rbx)                                      #51.22
        lea       176(%rsp), %rax                               #51.22
        movq      -16(%rax), %rdi                               #51.22
        cmpq      %rax, %rdi                                    #51.22
        je        ..B1.22       # Prob 78%                      #51.22
                                # LOE rbx rdi r12 r13d
..B1.21:                        # Preds ..B1.20
                                # Execution count [1.10e+00]
#       operator delete(void *)
        call      _ZdlPv                                        #51.22
                                # LOE rbx r12 r13d
..B1.22:                        # Preds ..B1.21 ..B1.20
                                # Execution count [5.00e+00]
        movl      $48, %edi                                     #52.9
..___tag_value_main.62:
#       operator new(std::size_t)
        call      _Znwm                                         #52.9
..___tag_value_main.63:
                                # LOE rax rbx r12 r13d
..B1.23:                        # Preds ..B1.22
                                # Execution count [5.00e+00]
        movq      %rax, %r15                                    #52.9
                                # LOE rbx r12 r15 r13d
..B1.24:                        # Preds ..B1.23
                                # Execution count [5.00e+00]
        movl      $.L_2__STRING.121, %esi                       #52.76
        lea       176(%rsp), %rax                               #52.9
        movq      %rax, -16(%rax)                               #52.9
        addq      $-16, %rsp                                    #52.76
	.cfi_escape 0x2e, 0x10
        movq      %rsp, %r8                                     #52.76
        lea       176(%rsp), %rdi                               #52.76
        movb      48(%rax), %cl                                 #52.76
        movl      $.L_2__STRING.121+12, %edx                    #52.76
        movb      $1, %r14b                                     #52.9
        movb      %cl, (%r8)                                    #52.76
..___tag_value_main.65:
#       std::__cxx11::basic_string<char, std::char_traits<char>, std::allocator<char>>::_M_construct<const char *>(std::__cxx11::basic_string<char, std::char_traits<char>, std::allocator<char>> *, const char *, const char *, std::forward_iterator_tag)
        call      _ZNSt7__cxx1112basic_stringIcSt11char_traitsIcESaIcEE12_M_constructIPKcEEvT_S8_St20forward_iterator_tag #52.76
..___tag_value_main.66:
                                # LOE rbx r12 r15 r13d r14b
..B1.25:                        # Preds ..B1.24
                                # Execution count [5.00e+00]
        addq      $16, %rsp                                     #52.76
	.cfi_escape 0x2e, 0x00
                                # LOE rbx r12 r15 r13d r14b
..B1.26:                        # Preds ..B1.25
                                # Execution count [5.00e+00]
        movq      %r15, %rdi                                    #52.93
        lea       160(%rsp), %rsi                               #52.93
        movl      %r13d, %edx                                   #52.93
..___tag_value_main.68:
#       ValueParameter<int>::ValueParameter(ValueParameter<int> *, std::__cxx11::string *, int)
        call      _ZN14ValueParameterIiEC1ENSt7__cxx1112basic_stringIcSt11char_traitsIcESaIcEEEi #52.93
..___tag_value_main.69:
                                # LOE rbx r12 r15 r13d r14b
..B1.27:                        # Preds ..B1.26
                                # Execution count [5.00e+00]
        movq      %rbx, %rdi                                    #52.22
        lea       264(%rsp), %rsi                               #52.22
        movq      %r15, (%rsi)                                  #52.22
        xorb      %r14b, %r14b                                  #52.93
..___tag_value_main.70:
#       std::__cxx11::list<TestParameter *, std::allocator<TestParameter *>>::_M_create_node<const std::__cxx11::list<TestParameter *, std::allocator<TestParameter *>>::value_type &>(std::__cxx11::list<TestParameter *, std::allocator<TestParameter *>> *, const std::__cxx11::list<TestParameter *, std::allocator<TestParameter *>>::value_type &)
        call      _ZNSt7__cxx114listIP13TestParameterSaIS2_EE14_M_create_nodeIJRKS2_EEEPSt10_List_nodeIS2_EDpOT_ #52.22
..___tag_value_main.71:
                                # LOE rax rbx r12 r15 r13d r14b
..B1.29:                        # Preds ..B1.27
                                # Execution count [5.00e+00]
        movq      %rax, %rdi                                    #52.22
        movq      %rbx, %rsi                                    #52.22
#       std::__detail::_List_node_base::_M_hook(std::__detail::_List_node_base *, std::__detail::_List_node_base *)
        call      _ZNSt8__detail15_List_node_base7_M_hookEPS0_  #52.22
                                # LOE rbx r12 r13d
..B1.30:                        # Preds ..B1.29
                                # Execution count [5.00e+00]
        incq      16(%rbx)                                      #52.22
        lea       176(%rsp), %rax                               #52.22
        movq      -16(%rax), %rdi                               #52.22
        cmpq      %rax, %rdi                                    #52.22
        je        ..B1.32       # Prob 78%                      #52.22
                                # LOE rbx rdi r12 r13d
..B1.31:                        # Preds ..B1.30
                                # Execution count [1.10e+00]
#       operator delete(void *)
        call      _ZdlPv                                        #52.22
                                # LOE rbx r12 r13d
..B1.32:                        # Preds ..B1.31 ..B1.30
                                # Execution count [5.00e+00]
        movl      $48, %edi                                     #53.9
..___tag_value_main.72:
#       operator new(std::size_t)
        call      _Znwm                                         #53.9
..___tag_value_main.73:
                                # LOE rax rbx r12 r13d
..B1.33:                        # Preds ..B1.32
                                # Execution count [5.00e+00]
        movq      %rax, %r15                                    #53.9
                                # LOE rbx r12 r15 r13d
..B1.34:                        # Preds ..B1.33
                                # Execution count [5.00e+00]
        movl      $.L_2__STRING.122, %esi                       #53.76
        lea       176(%rsp), %rax                               #53.9
        movq      %rax, -16(%rax)                               #53.9
        addq      $-16, %rsp                                    #53.76
	.cfi_escape 0x2e, 0x10
        movq      %rsp, %r8                                     #53.76
        lea       176(%rsp), %rdi                               #53.76
        movb      64(%rax), %cl                                 #53.76
        movl      $.L_2__STRING.122+10, %edx                    #53.76
        movb      $1, %r14b                                     #53.9
        movb      %cl, (%r8)                                    #53.76
..___tag_value_main.75:
#       std::__cxx11::basic_string<char, std::char_traits<char>, std::allocator<char>>::_M_construct<const char *>(std::__cxx11::basic_string<char, std::char_traits<char>, std::allocator<char>> *, const char *, const char *, std::forward_iterator_tag)
        call      _ZNSt7__cxx1112basic_stringIcSt11char_traitsIcESaIcEE12_M_constructIPKcEEvT_S8_St20forward_iterator_tag #53.76
..___tag_value_main.76:
                                # LOE rbx r12 r15 r13d r14b
..B1.35:                        # Preds ..B1.34
                                # Execution count [5.00e+00]
        addq      $16, %rsp                                     #53.76
	.cfi_escape 0x2e, 0x00
                                # LOE rbx r12 r15 r13d r14b
..B1.36:                        # Preds ..B1.35
                                # Execution count [5.00e+00]
        movq      %r15, %rdi                                    #53.91
        lea       160(%rsp), %rsi                               #53.91
        movl      $1000, %edx                                   #53.91
..___tag_value_main.78:
#       ValueParameter<int>::ValueParameter(ValueParameter<int> *, std::__cxx11::string *, int)
        call      _ZN14ValueParameterIiEC1ENSt7__cxx1112basic_stringIcSt11char_traitsIcESaIcEEEi #53.91
..___tag_value_main.79:
                                # LOE rbx r12 r15 r13d r14b
..B1.37:                        # Preds ..B1.36
                                # Execution count [5.00e+00]
        movq      %rbx, %rdi                                    #53.22
        lea       272(%rsp), %rsi                               #53.22
        movq      %r15, (%rsi)                                  #53.22
        xorb      %r14b, %r14b                                  #53.91
..___tag_value_main.80:
#       std::__cxx11::list<TestParameter *, std::allocator<TestParameter *>>::_M_create_node<const std::__cxx11::list<TestParameter *, std::allocator<TestParameter *>>::value_type &>(std::__cxx11::list<TestParameter *, std::allocator<TestParameter *>> *, const std::__cxx11::list<TestParameter *, std::allocator<TestParameter *>>::value_type &)
        call      _ZNSt7__cxx114listIP13TestParameterSaIS2_EE14_M_create_nodeIJRKS2_EEEPSt10_List_nodeIS2_EDpOT_ #53.22
..___tag_value_main.81:
                                # LOE rax rbx r12 r15 r13d r14b
..B1.39:                        # Preds ..B1.37
                                # Execution count [5.00e+00]
        movq      %rax, %rdi                                    #53.22
        movq      %rbx, %rsi                                    #53.22
#       std::__detail::_List_node_base::_M_hook(std::__detail::_List_node_base *, std::__detail::_List_node_base *)
        call      _ZNSt8__detail15_List_node_base7_M_hookEPS0_  #53.22
                                # LOE rbx r12 r13d
..B1.40:                        # Preds ..B1.39
                                # Execution count [5.00e+00]
        incq      16(%rbx)                                      #53.22
        lea       176(%rsp), %rax                               #53.22
        movq      -16(%rax), %rdi                               #53.22
        cmpq      %rax, %rdi                                    #53.22
        je        ..B1.42       # Prob 78%                      #53.22
                                # LOE rdi r12 r13d
..B1.41:                        # Preds ..B1.40
                                # Execution count [1.10e+00]
#       operator delete(void *)
        call      _ZdlPv                                        #53.22
                                # LOE r12 r13d
..B1.42:                        # Preds ..B1.41 ..B1.40
                                # Execution count [5.00e+00]
        movl      $240, %edi                                    #55.9
..___tag_value_main.82:
#       operator new(std::size_t)
        call      _Znwm                                         #55.9
..___tag_value_main.83:
                                # LOE rax r12 r13d
..B1.43:                        # Preds ..B1.42
                                # Execution count [5.00e+00]
        movq      %rax, %rbx                                    #55.9
                                # LOE rbx r12 r13d
..B1.44:                        # Preds ..B1.43
                                # Execution count [5.00e+00]
        movq      %rbx, %rdi                                    #55.61
        movl      $1, %esi                                      #55.61
..___tag_value_main.84:
#       Test::Test(Test *, bool)
        call      _ZN4TestC1Eb                                  #55.61
..___tag_value_main.85:
                                # LOE rbx r12 r13d
..B1.45:                        # Preds ..B1.44
                                # Execution count [5.00e+00]
        movq      $_ZTV10ScalarTestIdE+16, (%rbx)               #55.61
        lea       280(%rsp), %rsi                               #55.22
        movl      %r13d, 224(%rbx)                              #55.61
        movl      $1000, 228(%rbx)                              #55.61
        movq      %rbx, (%rsi)                                  #55.22
        lea       40(%r12), %rbx                                #55.22
        movq      %rbx, %rdi                                    #55.22
..___tag_value_main.86:
#       std::__cxx11::list<Test *, std::allocator<Test *>>::_M_create_node<const std::__cxx11::list<Test *, std::allocator<Test *>>::value_type &>(std::__cxx11::list<Test *, std::allocator<Test *>> *, const std::__cxx11::list<Test *, std::allocator<Test *>>::value_type &)
        call      _ZNSt7__cxx114listIP4TestSaIS2_EE14_M_create_nodeIJRKS2_EEEPSt10_List_nodeIS2_EDpOT_ #55.22
..___tag_value_main.87:
                                # LOE rax rbx r12 r13d
..B1.47:                        # Preds ..B1.45
                                # Execution count [5.00e+00]
        movq      %rax, %rdi                                    #55.22
        movq      %rbx, %rsi                                    #55.22
#       std::__detail::_List_node_base::_M_hook(std::__detail::_List_node_base *, std::__detail::_List_node_base *)
        call      _ZNSt8__detail15_List_node_base7_M_hookEPS0_  #55.22
                                # LOE rbx r12 r13d
..B1.48:                        # Preds ..B1.47
                                # Execution count [5.00e+00]
        movl      $240, %edi                                    #56.9
        incq      16(%rbx)                                      #55.22
..___tag_value_main.88:
#       operator new(std::size_t)
        call      _Znwm                                         #56.9
..___tag_value_main.89:
                                # LOE rax rbx r12 r13d
..B1.49:                        # Preds ..B1.48
                                # Execution count [5.00e+00]
        movq      %rax, %r14                                    #56.9
                                # LOE rbx r12 r14 r13d
..B1.50:                        # Preds ..B1.49
                                # Execution count [5.00e+00]
        movq      %r14, %rdi                                    #56.87
        movl      $1, %esi                                      #56.87
..___tag_value_main.90:
#       Test::Test(Test *, bool)
        call      _ZN4TestC1Eb                                  #56.87
..___tag_value_main.91:
                                # LOE rbx r12 r14 r13d
..B1.51:                        # Preds ..B1.50
                                # Execution count [5.00e+00]
        movq      %rbx, %rdi                                    #56.22
        lea       288(%rsp), %rsi                               #56.22
        movq      $_ZTV11UMESimdTestIdLi8EE+16, (%r14)          #56.87
        movl      %r13d, 224(%r14)                              #56.87
        movl      $1000, 228(%r14)                              #56.87
        movq      %r14, (%rsi)                                  #56.22
..___tag_value_main.92:
#       std::__cxx11::list<Test *, std::allocator<Test *>>::_M_create_node<const std::__cxx11::list<Test *, std::allocator<Test *>>::value_type &>(std::__cxx11::list<Test *, std::allocator<Test *>> *, const std::__cxx11::list<Test *, std::allocator<Test *>>::value_type &)
        call      _ZNSt7__cxx114listIP4TestSaIS2_EE14_M_create_nodeIJRKS2_EEEPSt10_List_nodeIS2_EDpOT_ #56.22
..___tag_value_main.93:
                                # LOE rax rbx r12 r13d
..B1.53:                        # Preds ..B1.51
                                # Execution count [5.00e+00]
        movq      %rax, %rdi                                    #56.22
        movq      %rbx, %rsi                                    #56.22
#       std::__detail::_List_node_base::_M_hook(std::__detail::_List_node_base *, std::__detail::_List_node_base *)
        call      _ZNSt8__detail15_List_node_base7_M_hookEPS0_  #56.22
                                # LOE rbx r12 r13d
..B1.54:                        # Preds ..B1.53
                                # Execution count [5.00e+00]
        movl      $240, %edi                                    #57.9
        incq      16(%rbx)                                      #56.22
..___tag_value_main.94:
#       operator new(std::size_t)
        call      _Znwm                                         #57.9
..___tag_value_main.95:
                                # LOE rax rbx r12 r13d
..B1.55:                        # Preds ..B1.54
                                # Execution count [5.00e+00]
        movq      %rax, %r14                                    #57.9
                                # LOE rbx r12 r14 r13d
..B1.56:                        # Preds ..B1.55
                                # Execution count [5.00e+00]
        movq      %r14, %rdi                                    #57.64
        movl      $1, %esi                                      #57.64
..___tag_value_main.96:
#       Test::Test(Test *, bool)
        call      _ZN4TestC1Eb                                  #57.64
..___tag_value_main.97:
                                # LOE rbx r12 r14 r13d
..B1.57:                        # Preds ..B1.56
                                # Execution count [5.00e+00]
        movq      %rbx, %rdi                                    #57.22
        lea       296(%rsp), %rsi                               #57.22
        movq      $_ZTV13UMEVectorTestIdE+16, (%r14)            #57.64
        movl      %r13d, 224(%r14)                              #57.64
        movl      $1000, 228(%r14)                              #57.64
        movq      %r14, (%rsi)                                  #57.22
..___tag_value_main.98:
#       std::__cxx11::list<Test *, std::allocator<Test *>>::_M_create_node<const std::__cxx11::list<Test *, std::allocator<Test *>>::value_type &>(std::__cxx11::list<Test *, std::allocator<Test *>> *, const std::__cxx11::list<Test *, std::allocator<Test *>>::value_type &)
        call      _ZNSt7__cxx114listIP4TestSaIS2_EE14_M_create_nodeIJRKS2_EEEPSt10_List_nodeIS2_EDpOT_ #57.22
..___tag_value_main.99:
                                # LOE rax rbx r12 r13d
..B1.59:                        # Preds ..B1.57
                                # Execution count [5.00e+00]
        movq      %rax, %rdi                                    #57.22
        movq      %rbx, %rsi                                    #57.22
#       std::__detail::_List_node_base::_M_hook(std::__detail::_List_node_base *, std::__detail::_List_node_base *)
        call      _ZNSt8__detail15_List_node_base7_M_hookEPS0_  #57.22
                                # LOE rbx r12 r13d
..B1.60:                        # Preds ..B1.59
                                # Execution count [5.00e+00]
        incq      16(%rbx)                                      #57.22
        lea       104(%rsp), %rdi                               #59.17
        movq      %rdi, %rsi                                    #59.17
        lea       304(%rsp), %rdx                               #59.17
        movq      %r12, (%rdx)                                  #59.17
..___tag_value_main.100:
#       std::__cxx11::list<TestCategory *, std::allocator<TestCategory *>>::_M_insert<const std::__cxx11::list<TestCategory *, std::allocator<TestCategory *>>::value_type &>(std::__cxx11::list<TestCategory *, std::allocator<TestCategory *>> *, std::__cxx11::list<TestCategory *, std::allocator<TestCategory *>>::iterator, const std::__cxx11::list<TestCategory *, std::allocator<TestCategory *>>::value_type &)
        call      _ZNSt7__cxx114listIP12TestCategorySaIS2_EE9_M_insertIJRKS2_EEEvSt14_List_iteratorIS2_EDpOT_ #59.17
..___tag_value_main.101:
                                # LOE r13d
..B1.61:                        # Preds ..B1.60
                                # Execution count [5.00e+00]
        movq      128(%rsp), %rdi                               #60.5
        lea       144(%rsp), %rax                               #60.5
        cmpq      %rax, %rdi                                    #60.5
        je        ..B1.63       # Prob 78%                      #60.5
                                # LOE rdi r13d
..B1.62:                        # Preds ..B1.61
                                # Execution count [1.10e+00]
#       operator delete(void *)
        call      _ZdlPv                                        #60.5
                                # LOE r13d
..B1.63:                        # Preds ..B1.62 ..B1.61
                                # Execution count [5.00e+00]
        lea       (%r13,%r13,4), %r13d                          #47.43
        addl      %r13d, %r13d                                  #47.43
        cmpl      $100000, %r13d                                #47.33
        jle       ..B1.3        # Prob 82%                      #47.33
                                # LOE r13d
..B1.64:                        # Preds ..B1.63
                                # Execution count [9.70e-01]: Infreq
        movl      $1, %r13d                                     #62.18
                                # LOE r13d
..B1.65:                        # Preds ..B1.127 ..B1.64
                                # Execution count [5.39e+00]: Infreq
        movl      $.L_2__STRING.119, %esi                       #64.48
        lea       208(%rsp), %rax                               #64.21
        movq      %rax, -16(%rax)                               #64.21
        addq      $-16, %rsp                                    #64.48
	.cfi_escape 0x2e, 0x10
        movq      %rsp, %rbx                                    #64.48
        lea       208(%rsp), %rdi                               #64.48
        movb      16(%rsp), %cl                                 #64.48
        movl      $.L_2__STRING.119+10, %edx                    #64.48
        movb      %cl, (%rbx)                                   #64.48
..___tag_value_main.103:
#       std::__cxx11::basic_string<char, std::char_traits<char>, std::allocator<char>>::_M_construct<const char *>(std::__cxx11::basic_string<char, std::char_traits<char>, std::allocator<char>> *, const char *, const char *, std::forward_iterator_tag)
        call      _ZNSt7__cxx1112basic_stringIcSt11char_traitsIcESaIcEE12_M_constructIPKcEEvT_S8_St20forward_iterator_tag #64.48
..___tag_value_main.104:
                                # LOE r13d
..B1.66:                        # Preds ..B1.65
                                # Execution count [5.39e+00]: Infreq
        addq      $16, %rsp                                     #64.48
	.cfi_escape 0x2e, 0x00
                                # LOE r13d
..B1.67:                        # Preds ..B1.66
                                # Execution count [5.39e+00]: Infreq
        movl      $96, %edi                                     #65.23
..___tag_value_main.106:
#       operator new(std::size_t)
        call      _Znwm                                         #65.23
..___tag_value_main.107:
                                # LOE rax r13d
..B1.68:                        # Preds ..B1.67
                                # Execution count [5.39e+00]: Infreq
        movq      %rax, %r12                                    #65.23
                                # LOE r12 r13d
..B1.69:                        # Preds ..B1.68
                                # Execution count [5.39e+00]: Infreq
        movq      192(%rsp), %rsi                               #65.54
        lea       240(%rsp), %rax                               #65.54
        movq      %rax, -16(%rax)                               #65.23
        addq      $-16, %rsp                                    #65.54
	.cfi_escape 0x2e, 0x10
        movq      %rsp, %rbx                                    #65.54
        lea       240(%rsp), %rdi                               #65.54
        movq      -40(%rax), %rdx                               #65.54
        movb      128(%rax), %cl                                #65.54
        addq      %rsi, %rdx                                    #65.54
        movb      %cl, (%rbx)                                   #65.54
..___tag_value_main.109:
#       std::__cxx11::basic_string<char, std::char_traits<char>, std::allocator<char>>::_M_construct<std::__cxx11::basic_string<char, std::char_traits<char>, std::allocator<char>>::pointer>(std::__cxx11::basic_string<char, std::char_traits<char>, std::allocator<char>> *, std::__cxx11::basic_string<char, std::char_traits<char>, std::allocator<char>>::pointer, std::__cxx11::basic_string<char, std::char_traits<char>, std::allocator<char>>::pointer, std::forward_iterator_tag)
        call      _ZNSt7__cxx1112basic_stringIcSt11char_traitsIcESaIcEE12_M_constructIPcEEvT_S7_St20forward_iterator_tag #65.54
..___tag_value_main.110:
                                # LOE r12 r13d
..B1.70:                        # Preds ..B1.69
                                # Execution count [5.39e+00]: Infreq
        addq      $16, %rsp                                     #65.54
	.cfi_escape 0x2e, 0x00
                                # LOE r12 r13d
..B1.71:                        # Preds ..B1.70
                                # Execution count [5.39e+00]: Infreq
        movq      %r12, %rdi                                    #65.54
        lea       224(%rsp), %rsi                               #65.54
..___tag_value_main.112:
#       TestCategory::TestCategory(TestCategory *, std::__cxx11::string *)
        call      _ZN12TestCategoryC1ENSt7__cxx1112basic_stringIcSt11char_traitsIcESaIcEEE #65.54
..___tag_value_main.113:
                                # LOE r12 r13d
..B1.72:                        # Preds ..B1.71
                                # Execution count [5.39e+00]: Infreq
        movq      224(%rsp), %rdi                               #65.23
        lea       240(%rsp), %rax                               #65.23
        cmpq      %rax, %rdi                                    #65.23
        je        ..B1.74       # Prob 78%                      #65.23
                                # LOE rdi r12 r13d
..B1.73:                        # Preds ..B1.72
                                # Execution count [1.19e+00]: Infreq
#       operator delete(void *)
        call      _ZdlPv                                        #65.23
                                # LOE r12 r13d
..B1.74:                        # Preds ..B1.73 ..B1.72
                                # Execution count [5.39e+00]: Infreq
        movl      $48, %edi                                     #66.9
..___tag_value_main.114:
#       operator new(std::size_t)
        call      _Znwm                                         #66.9
..___tag_value_main.115:
                                # LOE rax r12 r13d
..B1.75:                        # Preds ..B1.74
                                # Execution count [5.39e+00]: Infreq
        movq      %rax, %r15                                    #66.9
                                # LOE r12 r15 r13d
..B1.76:                        # Preds ..B1.75
                                # Execution count [5.39e+00]: Infreq
        movl      $.L_2__STRING.120, %esi                       #66.76
        lea       240(%rsp), %rax                               #66.9
        movq      %rax, -16(%rax)                               #66.9
        addq      $-16, %rsp                                    #66.76
	.cfi_escape 0x2e, 0x10
        movq      %rsp, %rbx                                    #66.76
        lea       240(%rsp), %rdi                               #66.76
        movb      144(%rax), %cl                                #66.76
        movl      $.L_2__STRING.120+9, %edx                     #66.76
        movb      $1, %r14b                                     #66.9
        movb      %cl, (%rbx)                                   #66.76
..___tag_value_main.117:
#       std::__cxx11::basic_string<char, std::char_traits<char>, std::allocator<char>>::_M_construct<const char *>(std::__cxx11::basic_string<char, std::char_traits<char>, std::allocator<char>> *, const char *, const char *, std::forward_iterator_tag)
        call      _ZNSt7__cxx1112basic_stringIcSt11char_traitsIcESaIcEE12_M_constructIPKcEEvT_S8_St20forward_iterator_tag #66.76
..___tag_value_main.118:
                                # LOE r12 r15 r13d r14b
..B1.77:                        # Preds ..B1.76
                                # Execution count [5.39e+00]: Infreq
        addq      $16, %rsp                                     #66.76
	.cfi_escape 0x2e, 0x00
                                # LOE r12 r15 r13d r14b
..B1.78:                        # Preds ..B1.77
                                # Execution count [5.39e+00]: Infreq
        movq      %r15, %rdi                                    #66.90
        lea       224(%rsp), %rsi                               #66.90
        movl      $32, %edx                                     #66.90
..___tag_value_main.120:
#       ValueParameter<int>::ValueParameter(ValueParameter<int> *, std::__cxx11::string *, int)
        call      _ZN14ValueParameterIiEC1ENSt7__cxx1112basic_stringIcSt11char_traitsIcESaIcEEEi #66.90
..___tag_value_main.121:
                                # LOE r12 r15 r13d r14b
..B1.79:                        # Preds ..B1.78
                                # Execution count [5.39e+00]: Infreq
        movq      %r15, 312(%rsp)                               #66.22
        lea       64(%r12), %rbx                                #66.22
        movq      %rbx, %rdi                                    #66.22
        lea       312(%rsp), %rsi                               #66.22
        xorb      %r14b, %r14b                                  #66.90
..___tag_value_main.122:
#       std::__cxx11::list<TestParameter *, std::allocator<TestParameter *>>::_M_create_node<const std::__cxx11::list<TestParameter *, std::allocator<TestParameter *>>::value_type &>(std::__cxx11::list<TestParameter *, std::allocator<TestParameter *>> *, const std::__cxx11::list<TestParameter *, std::allocator<TestParameter *>>::value_type &)
        call      _ZNSt7__cxx114listIP13TestParameterSaIS2_EE14_M_create_nodeIJRKS2_EEEPSt10_List_nodeIS2_EDpOT_ #66.22
..___tag_value_main.123:
                                # LOE rax rbx r12 r15 r13d r14b
..B1.81:                        # Preds ..B1.79
                                # Execution count [5.39e+00]: Infreq
        movq      %rax, %rdi                                    #66.22
        movq      %rbx, %rsi                                    #66.22
#       std::__detail::_List_node_base::_M_hook(std::__detail::_List_node_base *, std::__detail::_List_node_base *)
        call      _ZNSt8__detail15_List_node_base7_M_hookEPS0_  #66.22
                                # LOE rbx r12 r13d
..B1.82:                        # Preds ..B1.81
                                # Execution count [5.39e+00]: Infreq
        incq      16(%rbx)                                      #66.22
        lea       240(%rsp), %rax                               #66.22
        movq      -16(%rax), %rdi                               #66.22
        cmpq      %rax, %rdi                                    #66.22
        je        ..B1.84       # Prob 78%                      #66.22
                                # LOE rbx rdi r12 r13d
..B1.83:                        # Preds ..B1.82
                                # Execution count [1.19e+00]: Infreq
#       operator delete(void *)
        call      _ZdlPv                                        #66.22
                                # LOE rbx r12 r13d
..B1.84:                        # Preds ..B1.83 ..B1.82
                                # Execution count [5.39e+00]: Infreq
        movl      $48, %edi                                     #67.9
..___tag_value_main.124:
#       operator new(std::size_t)
        call      _Znwm                                         #67.9
..___tag_value_main.125:
                                # LOE rax rbx r12 r13d
..B1.85:                        # Preds ..B1.84
                                # Execution count [5.39e+00]: Infreq
        movq      %rax, %r15                                    #67.9
                                # LOE rbx r12 r15 r13d
..B1.86:                        # Preds ..B1.85
                                # Execution count [5.39e+00]: Infreq
        movl      $.L_2__STRING.121, %esi                       #67.76
        lea       240(%rsp), %rax                               #67.9
        movq      %rax, -16(%rax)                               #67.9
        addq      $-16, %rsp                                    #67.76
	.cfi_escape 0x2e, 0x10
        movq      %rsp, %r8                                     #67.76
        lea       240(%rsp), %rdi                               #67.76
        movb      160(%rax), %cl                                #67.76
        movl      $.L_2__STRING.121+12, %edx                    #67.76
        movb      $1, %r14b                                     #67.9
        movb      %cl, (%r8)                                    #67.76
..___tag_value_main.127:
#       std::__cxx11::basic_string<char, std::char_traits<char>, std::allocator<char>>::_M_construct<const char *>(std::__cxx11::basic_string<char, std::char_traits<char>, std::allocator<char>> *, const char *, const char *, std::forward_iterator_tag)
        call      _ZNSt7__cxx1112basic_stringIcSt11char_traitsIcESaIcEE12_M_constructIPKcEEvT_S8_St20forward_iterator_tag #67.76
..___tag_value_main.128:
                                # LOE rbx r12 r15 r13d r14b
..B1.87:                        # Preds ..B1.86
                                # Execution count [5.39e+00]: Infreq
        addq      $16, %rsp                                     #67.76
	.cfi_escape 0x2e, 0x00
                                # LOE rbx r12 r15 r13d r14b
..B1.88:                        # Preds ..B1.87
                                # Execution count [5.39e+00]: Infreq
        movq      %r15, %rdi                                    #67.93
        lea       224(%rsp), %rsi                               #67.93
        movl      %r13d, %edx                                   #67.93
..___tag_value_main.130:
#       ValueParameter<int>::ValueParameter(ValueParameter<int> *, std::__cxx11::string *, int)
        call      _ZN14ValueParameterIiEC1ENSt7__cxx1112basic_stringIcSt11char_traitsIcESaIcEEEi #67.93
..___tag_value_main.131:
                                # LOE rbx r12 r15 r13d r14b
..B1.89:                        # Preds ..B1.88
                                # Execution count [5.39e+00]: Infreq
        movq      %rbx, %rdi                                    #67.22
        lea       320(%rsp), %rsi                               #67.22
        movq      %r15, (%rsi)                                  #67.22
        xorb      %r14b, %r14b                                  #67.93
..___tag_value_main.132:
#       std::__cxx11::list<TestParameter *, std::allocator<TestParameter *>>::_M_create_node<const std::__cxx11::list<TestParameter *, std::allocator<TestParameter *>>::value_type &>(std::__cxx11::list<TestParameter *, std::allocator<TestParameter *>> *, const std::__cxx11::list<TestParameter *, std::allocator<TestParameter *>>::value_type &)
        call      _ZNSt7__cxx114listIP13TestParameterSaIS2_EE14_M_create_nodeIJRKS2_EEEPSt10_List_nodeIS2_EDpOT_ #67.22
..___tag_value_main.133:
                                # LOE rax rbx r12 r15 r13d r14b
..B1.91:                        # Preds ..B1.89
                                # Execution count [5.39e+00]: Infreq
        movq      %rax, %rdi                                    #67.22
        movq      %rbx, %rsi                                    #67.22
#       std::__detail::_List_node_base::_M_hook(std::__detail::_List_node_base *, std::__detail::_List_node_base *)
        call      _ZNSt8__detail15_List_node_base7_M_hookEPS0_  #67.22
                                # LOE rbx r12 r13d
..B1.92:                        # Preds ..B1.91
                                # Execution count [5.39e+00]: Infreq
        incq      16(%rbx)                                      #67.22
        lea       240(%rsp), %rax                               #67.22
        movq      -16(%rax), %rdi                               #67.22
        cmpq      %rax, %rdi                                    #67.22
        je        ..B1.94       # Prob 78%                      #67.22
                                # LOE rbx rdi r12 r13d
..B1.93:                        # Preds ..B1.92
                                # Execution count [1.19e+00]: Infreq
#       operator delete(void *)
        call      _ZdlPv                                        #67.22
                                # LOE rbx r12 r13d
..B1.94:                        # Preds ..B1.93 ..B1.92
                                # Execution count [5.39e+00]: Infreq
        movl      $48, %edi                                     #68.9
..___tag_value_main.134:
#       operator new(std::size_t)
        call      _Znwm                                         #68.9
..___tag_value_main.135:
                                # LOE rax rbx r12 r13d
..B1.95:                        # Preds ..B1.94
                                # Execution count [5.39e+00]: Infreq
        movq      %rax, %r15                                    #68.9
                                # LOE rbx r12 r15 r13d
..B1.96:                        # Preds ..B1.95
                                # Execution count [5.39e+00]: Infreq
        movl      $.L_2__STRING.122, %esi                       #68.76
        lea       240(%rsp), %rax                               #68.9
        movq      %rax, -16(%rax)                               #68.9
        addq      $-16, %rsp                                    #68.76
	.cfi_escape 0x2e, 0x10
        movq      %rsp, %r8                                     #68.76
        lea       240(%rsp), %rdi                               #68.76
        movb      176(%rax), %cl                                #68.76
        movl      $.L_2__STRING.122+10, %edx                    #68.76
        movb      $1, %r14b                                     #68.9
        movb      %cl, (%r8)                                    #68.76
..___tag_value_main.137:
#       std::__cxx11::basic_string<char, std::char_traits<char>, std::allocator<char>>::_M_construct<const char *>(std::__cxx11::basic_string<char, std::char_traits<char>, std::allocator<char>> *, const char *, const char *, std::forward_iterator_tag)
        call      _ZNSt7__cxx1112basic_stringIcSt11char_traitsIcESaIcEE12_M_constructIPKcEEvT_S8_St20forward_iterator_tag #68.76
..___tag_value_main.138:
                                # LOE rbx r12 r15 r13d r14b
..B1.97:                        # Preds ..B1.96
                                # Execution count [5.39e+00]: Infreq
        addq      $16, %rsp                                     #68.76
	.cfi_escape 0x2e, 0x00
                                # LOE rbx r12 r15 r13d r14b
..B1.98:                        # Preds ..B1.97
                                # Execution count [5.39e+00]: Infreq
        movq      %r15, %rdi                                    #68.91
        lea       224(%rsp), %rsi                               #68.91
        movl      $1000, %edx                                   #68.91
..___tag_value_main.140:
#       ValueParameter<int>::ValueParameter(ValueParameter<int> *, std::__cxx11::string *, int)
        call      _ZN14ValueParameterIiEC1ENSt7__cxx1112basic_stringIcSt11char_traitsIcESaIcEEEi #68.91
..___tag_value_main.141:
                                # LOE rbx r12 r15 r13d r14b
..B1.99:                        # Preds ..B1.98
                                # Execution count [5.39e+00]: Infreq
        movq      %rbx, %rdi                                    #68.22
        lea       328(%rsp), %rsi                               #68.22
        movq      %r15, (%rsi)                                  #68.22
        xorb      %r14b, %r14b                                  #68.91
..___tag_value_main.142:
#       std::__cxx11::list<TestParameter *, std::allocator<TestParameter *>>::_M_create_node<const std::__cxx11::list<TestParameter *, std::allocator<TestParameter *>>::value_type &>(std::__cxx11::list<TestParameter *, std::allocator<TestParameter *>> *, const std::__cxx11::list<TestParameter *, std::allocator<TestParameter *>>::value_type &)
        call      _ZNSt7__cxx114listIP13TestParameterSaIS2_EE14_M_create_nodeIJRKS2_EEEPSt10_List_nodeIS2_EDpOT_ #68.22
..___tag_value_main.143:
                                # LOE rax rbx r12 r15 r13d r14b
..B1.101:                       # Preds ..B1.99
                                # Execution count [5.39e+00]: Infreq
        movq      %rax, %rdi                                    #68.22
        movq      %rbx, %rsi                                    #68.22
#       std::__detail::_List_node_base::_M_hook(std::__detail::_List_node_base *, std::__detail::_List_node_base *)
        call      _ZNSt8__detail15_List_node_base7_M_hookEPS0_  #68.22
                                # LOE rbx r12 r13d
..B1.102:                       # Preds ..B1.101
                                # Execution count [5.39e+00]: Infreq
        incq      16(%rbx)                                      #68.22
        lea       240(%rsp), %rax                               #68.22
        movq      -16(%rax), %rdi                               #68.22
        cmpq      %rax, %rdi                                    #68.22
        je        ..B1.104      # Prob 78%                      #68.22
                                # LOE rdi r12 r13d
..B1.103:                       # Preds ..B1.102
                                # Execution count [1.19e+00]: Infreq
#       operator delete(void *)
        call      _ZdlPv                                        #68.22
                                # LOE r12 r13d
..B1.104:                       # Preds ..B1.103 ..B1.102
                                # Execution count [5.39e+00]: Infreq
        movl      $240, %edi                                    #70.9
..___tag_value_main.144:
#       operator new(std::size_t)
        call      _Znwm                                         #70.9
..___tag_value_main.145:
                                # LOE rax r12 r13d
..B1.105:                       # Preds ..B1.104
                                # Execution count [5.39e+00]: Infreq
        movq      %rax, %rbx                                    #70.9
                                # LOE rbx r12 r13d
..B1.106:                       # Preds ..B1.105
                                # Execution count [5.39e+00]: Infreq
        movq      %rbx, %rdi                                    #70.60
        movl      $1, %esi                                      #70.60
..___tag_value_main.146:
#       Test::Test(Test *, bool)
        call      _ZN4TestC1Eb                                  #70.60
..___tag_value_main.147:
                                # LOE rbx r12 r13d
..B1.107:                       # Preds ..B1.106
                                # Execution count [5.39e+00]: Infreq
        movq      $_ZTV10ScalarTestIfE+16, (%rbx)               #70.60
        lea       336(%rsp), %rsi                               #70.22
        movl      %r13d, 224(%rbx)                              #70.60
        movl      $1000, 228(%rbx)                              #70.60
        movq      %rbx, (%rsi)                                  #70.22
        lea       40(%r12), %rbx                                #70.22
        movq      %rbx, %rdi                                    #70.22
..___tag_value_main.148:
#       std::__cxx11::list<Test *, std::allocator<Test *>>::_M_create_node<const std::__cxx11::list<Test *, std::allocator<Test *>>::value_type &>(std::__cxx11::list<Test *, std::allocator<Test *>> *, const std::__cxx11::list<Test *, std::allocator<Test *>>::value_type &)
        call      _ZNSt7__cxx114listIP4TestSaIS2_EE14_M_create_nodeIJRKS2_EEEPSt10_List_nodeIS2_EDpOT_ #70.22
..___tag_value_main.149:
                                # LOE rax rbx r12 r13d
..B1.109:                       # Preds ..B1.107
                                # Execution count [5.39e+00]: Infreq
        movq      %rax, %rdi                                    #70.22
        movq      %rbx, %rsi                                    #70.22
#       std::__detail::_List_node_base::_M_hook(std::__detail::_List_node_base *, std::__detail::_List_node_base *)
        call      _ZNSt8__detail15_List_node_base7_M_hookEPS0_  #70.22
                                # LOE rbx r12 r13d
..B1.110:                       # Preds ..B1.109
                                # Execution count [5.39e+00]: Infreq
        movl      $240, %edi                                    #71.9
        incq      16(%rbx)                                      #70.22
..___tag_value_main.150:
#       operator new(std::size_t)
        call      _Znwm                                         #71.9
..___tag_value_main.151:
                                # LOE rax rbx r12 r13d
..B1.111:                       # Preds ..B1.110
                                # Execution count [5.39e+00]: Infreq
        movq      %rax, %r14                                    #71.9
                                # LOE rbx r12 r14 r13d
..B1.112:                       # Preds ..B1.111
                                # Execution count [5.39e+00]: Infreq
        movq      %r14, %rdi                                    #71.86
        movl      $1, %esi                                      #71.86
..___tag_value_main.152:
#       Test::Test(Test *, bool)
        call      _ZN4TestC1Eb                                  #71.86
..___tag_value_main.153:
                                # LOE rbx r12 r14 r13d
..B1.113:                       # Preds ..B1.112
                                # Execution count [5.39e+00]: Infreq
        movq      %rbx, %rdi                                    #71.22
        lea       344(%rsp), %rsi                               #71.22
        movq      $_ZTV11UMESimdTestIfLi8EE+16, (%r14)          #71.86
        movl      %r13d, 224(%r14)                              #71.86
        movl      $1000, 228(%r14)                              #71.86
        movq      %r14, (%rsi)                                  #71.22
..___tag_value_main.154:
#       std::__cxx11::list<Test *, std::allocator<Test *>>::_M_create_node<const std::__cxx11::list<Test *, std::allocator<Test *>>::value_type &>(std::__cxx11::list<Test *, std::allocator<Test *>> *, const std::__cxx11::list<Test *, std::allocator<Test *>>::value_type &)
        call      _ZNSt7__cxx114listIP4TestSaIS2_EE14_M_create_nodeIJRKS2_EEEPSt10_List_nodeIS2_EDpOT_ #71.22
..___tag_value_main.155:
                                # LOE rax rbx r12 r13d
..B1.115:                       # Preds ..B1.113
                                # Execution count [5.39e+00]: Infreq
        movq      %rax, %rdi                                    #71.22
        movq      %rbx, %rsi                                    #71.22
#       std::__detail::_List_node_base::_M_hook(std::__detail::_List_node_base *, std::__detail::_List_node_base *)
        call      _ZNSt8__detail15_List_node_base7_M_hookEPS0_  #71.22
                                # LOE rbx r12 r13d
..B1.116:                       # Preds ..B1.115
                                # Execution count [5.39e+00]: Infreq
        movl      $240, %edi                                    #72.9
        incq      16(%rbx)                                      #71.22
..___tag_value_main.156:
#       operator new(std::size_t)
        call      _Znwm                                         #72.9
..___tag_value_main.157:
                                # LOE rax rbx r12 r13d
..B1.117:                       # Preds ..B1.116
                                # Execution count [5.39e+00]: Infreq
        movq      %rax, %r14                                    #72.9
                                # LOE rbx r12 r14 r13d
..B1.118:                       # Preds ..B1.117
                                # Execution count [5.39e+00]: Infreq
        movq      %r14, %rdi                                    #72.63
        movl      $1, %esi                                      #72.63
..___tag_value_main.158:
#       Test::Test(Test *, bool)
        call      _ZN4TestC1Eb                                  #72.63
..___tag_value_main.159:
                                # LOE rbx r12 r14 r13d
..B1.119:                       # Preds ..B1.118
                                # Execution count [5.39e+00]: Infreq
        movq      %rbx, %rdi                                    #72.22
        lea       352(%rsp), %rsi                               #72.22
        movq      $_ZTV13UMEVectorTestIfE+16, (%r14)            #72.63
        movl      %r13d, 224(%r14)                              #72.63
        movl      $1000, 228(%r14)                              #72.63
        movq      %r14, (%rsi)                                  #72.22
..___tag_value_main.160:
#       std::__cxx11::list<Test *, std::allocator<Test *>>::_M_create_node<const std::__cxx11::list<Test *, std::allocator<Test *>>::value_type &>(std::__cxx11::list<Test *, std::allocator<Test *>> *, const std::__cxx11::list<Test *, std::allocator<Test *>>::value_type &)
        call      _ZNSt7__cxx114listIP4TestSaIS2_EE14_M_create_nodeIJRKS2_EEEPSt10_List_nodeIS2_EDpOT_ #72.22
..___tag_value_main.161:
                                # LOE rax rbx r12 r13d
..B1.121:                       # Preds ..B1.119
                                # Execution count [5.39e+00]: Infreq
        movq      %rax, %rdi                                    #72.22
        movq      %rbx, %rsi                                    #72.22
#       std::__detail::_List_node_base::_M_hook(std::__detail::_List_node_base *, std::__detail::_List_node_base *)
        call      _ZNSt8__detail15_List_node_base7_M_hookEPS0_  #72.22
                                # LOE rbx r12 r13d
..B1.122:                       # Preds ..B1.121
                                # Execution count [5.39e+00]: Infreq
        incq      16(%rbx)                                      #72.22
        lea       104(%rsp), %rdi                               #74.17
        movq      %r12, 256(%rdi)                               #74.17
        lea       360(%rsp), %rsi                               #74.17
..___tag_value_main.162:
#       std::__cxx11::list<TestCategory *, std::allocator<TestCategory *>>::_M_create_node<const std::__cxx11::list<TestCategory *, std::allocator<TestCategory *>>::value_type &>(std::__cxx11::list<TestCategory *, std::allocator<TestCategory *>> *, const std::__cxx11::list<TestCategory *, std::allocator<TestCategory *>>::value_type &)
        call      _ZNSt7__cxx114listIP12TestCategorySaIS2_EE14_M_create_nodeIJRKS2_EEEPSt10_List_nodeIS2_EDpOT_ #74.17
..___tag_value_main.163:
                                # LOE rax r13d
..B1.124:                       # Preds ..B1.122
                                # Execution count [5.39e+00]: Infreq
        movq      %rax, %rdi                                    #74.17
        lea       104(%rsp), %rsi                               #74.17
#       std::__detail::_List_node_base::_M_hook(std::__detail::_List_node_base *, std::__detail::_List_node_base *)
        call      _ZNSt8__detail15_List_node_base7_M_hookEPS0_  #74.17
                                # LOE r13d
..B1.125:                       # Preds ..B1.124
                                # Execution count [5.39e+00]: Infreq
        incq      120(%rsp)                                     #74.17
        lea       208(%rsp), %rax                               #75.5
        movq      -16(%rax), %rdi                               #75.5
        cmpq      %rax, %rdi                                    #75.5
        je        ..B1.127      # Prob 78%                      #75.5
                                # LOE rdi r13d
..B1.126:                       # Preds ..B1.125
                                # Execution count [1.19e+00]: Infreq
#       operator delete(void *)
        call      _ZdlPv                                        #75.5
                                # LOE r13d
..B1.127:                       # Preds ..B1.126 ..B1.125
                                # Execution count [5.39e+00]: Infreq
        lea       (%r13,%r13,4), %r13d                          #62.43
        addl      %r13d, %r13d                                  #62.43
        cmpl      $100000, %r13d                                #62.33
        jle       ..B1.65       # Prob 82%                      #62.33
                                # LOE r13d
..B1.128:                       # Preds ..B1.127
                                # Execution count [1.00e+00]: Infreq
        movl      $10, %esi                                     #76.13
        lea       8(%rsp), %rdi                                 #76.13
..___tag_value_main.164:
#       BenchmarkHarness::runAllTests(BenchmarkHarness *, int)
        call      _ZN16BenchmarkHarness11runAllTestsEi          #76.13
..___tag_value_main.165:
                                # LOE
..B1.129:                       # Preds ..B1.128
                                # Execution count [1.00e+00]: Infreq
        lea       8(%rsp), %rdi                                 #78.5
..___tag_value_main.166:
#       BenchmarkHarness::~BenchmarkHarness(BenchmarkHarness *)
        call      _ZN16BenchmarkHarnessD1Ev                     #78.5
..___tag_value_main.167:
                                # LOE
..B1.130:                       # Preds ..B1.129
                                # Execution count [1.00e+00]: Infreq
        xorl      %eax, %eax                                    #78.12
        addq      $472, %rsp                                    #78.12
	.cfi_restore 3
        popq      %rbx                                          #78.12
	.cfi_restore 15
        popq      %r15                                          #78.12
	.cfi_restore 14
        popq      %r14                                          #78.12
	.cfi_restore 13
        popq      %r13                                          #78.12
	.cfi_restore 12
        popq      %r12                                          #78.12
        movq      %rbp, %rsp                                    #78.12
        popq      %rbp                                          #78.12
	.cfi_def_cfa 7, 8
	.cfi_restore 6
        ret                                                     #78.12
	.cfi_def_cfa 6, 16
	.cfi_escape 0x10, 0x03, 0x0e, 0x38, 0x1c, 0x0d, 0x80, 0xff, 0xff, 0xff, 0x1a, 0x0d, 0xd8, 0xff, 0xff, 0xff, 0x22
	.cfi_offset 6, -16
	.cfi_escape 0x10, 0x0c, 0x0e, 0x38, 0x1c, 0x0d, 0x80, 0xff, 0xff, 0xff, 0x1a, 0x0d, 0xf8, 0xff, 0xff, 0xff, 0x22
	.cfi_escape 0x10, 0x0d, 0x0e, 0x38, 0x1c, 0x0d, 0x80, 0xff, 0xff, 0xff, 0x1a, 0x0d, 0xf0, 0xff, 0xff, 0xff, 0x22
	.cfi_escape 0x10, 0x0e, 0x0e, 0x38, 0x1c, 0x0d, 0x80, 0xff, 0xff, 0xff, 0x1a, 0x0d, 0xe8, 0xff, 0xff, 0xff, 0x22
	.cfi_escape 0x10, 0x0f, 0x0e, 0x38, 0x1c, 0x0d, 0x80, 0xff, 0xff, 0xff, 0x1a, 0x0d, 0xe0, 0xff, 0xff, 0xff, 0x22
                                # LOE
..___tag_value_main.27:
..B1.131:                       # Preds ..B1.128
                                # Execution count [0.00e+00]: Infreq
        movq      %rax, (%rsp)                                  #41.36
                                # LOE
..B1.132:                       # Preds ..B1.228 ..B1.179 ..B1.175 ..B1.223 ..B1.136
                                #       ..B1.131
                                # Execution count [0.00e+00]: Infreq
        lea       8(%rsp), %rdi                                 #41.36
..___tag_value_main.182:
#       BenchmarkHarness::~BenchmarkHarness(BenchmarkHarness *)
        call      _ZN16BenchmarkHarnessD1Ev                     #41.36
..___tag_value_main.183:
                                # LOE
..B1.133:                       # Preds ..B1.132
                                # Execution count [0.00e+00]: Infreq
        movq      (%rsp), %rdi                                  #41.36
..___tag_value_main.184:
        call      _Unwind_Resume                                #41.36
..___tag_value_main.185:
                                # LOE
..___tag_value_main.15:
..B1.134:                       # Preds ..B1.122 ..B1.116 ..B1.110 ..B1.104 ..B1.94
                                #       ..B1.84 ..B1.74 ..B1.67
                                # Execution count [0.00e+00]: Infreq
        movq      %rax, (%rsp)                                  #64.48
                                # LOE
..B1.135:                       # Preds ..B1.172 ..B1.163 ..B1.164 ..B1.155 ..B1.156
                                #       ..B1.147 ..B1.148 ..B1.138 ..B1.134
                                # Execution count [0.00e+00]: Infreq
        lea       208(%rsp), %rdi                               #64.48
..___tag_value_main.186:
#       std::pointer_traits<std::__cxx11::basic_string<char, std::char_traits<char>, std::allocator<char>>::const_pointer>::pointer_to(std::__ptrtr_not_void<std::pointer_traits<std::__cxx11::basic_string<char, std::char_traits<char>, std::allocator<char>>::const_pointer>::element_type, std::remove_cv<std::pointer_traits<std::__cxx11::basic_string<char, std::char_traits<char>, std::allocator<char>>::const_pointer>::element_type>::type>::__type &)
        call      _ZNSt14pointer_traitsIPKcE10pointer_toERS0_   #64.48
..___tag_value_main.187:
                                # LOE rax
..B1.223:                       # Preds ..B1.135
                                # Execution count [0.00e+00]: Infreq
        movq      192(%rsp), %rdi                               #64.48
        cmpq      %rax, %rdi                                    #64.48
        je        ..B1.132      # Prob 78%                      #64.48
                                # LOE rdi
..B1.136:                       # Preds ..B1.223
                                # Execution count [0.00e+00]: Infreq
#       operator delete(void *)
        call      _ZdlPv                                        #64.48
        jmp       ..B1.132      # Prob 100%                     #64.48
                                # LOE
..___tag_value_main.26:
..___tag_value_main.25:
..___tag_value_main.24:
..B1.138:                       # Preds ..B1.107 ..B1.113 ..B1.119
                                # Execution count [0.00e+00]: Infreq
        movq      %rax, (%rsp)                                  #72.9
        jmp       ..B1.135      # Prob 100%                     #72.9
                                # LOE
..___tag_value_main.23:
..B1.144:                       # Preds ..B1.99 ..B1.98
                                # Execution count [0.00e+00]: Infreq
        movq      %rax, (%rsp)                                  #68.76
                                # LOE r15 r14b
..B1.145:                       # Preds ..B1.144
                                # Execution count [0.00e+00]: Infreq
        lea       240(%rsp), %rdi                               #68.76
..___tag_value_main.188:
#       std::pointer_traits<std::__cxx11::basic_string<char, std::char_traits<char>, std::allocator<char>>::const_pointer>::pointer_to(std::__ptrtr_not_void<std::pointer_traits<std::__cxx11::basic_string<char, std::char_traits<char>, std::allocator<char>>::const_pointer>::element_type, std::remove_cv<std::pointer_traits<std::__cxx11::basic_string<char, std::char_traits<char>, std::allocator<char>>::const_pointer>::element_type>::type>::__type &)
        call      _ZNSt14pointer_traitsIPKcE10pointer_toERS0_   #68.76
..___tag_value_main.189:
                                # LOE rax r15 r14b
..B1.224:                       # Preds ..B1.145
                                # Execution count [0.00e+00]: Infreq
        movq      224(%rsp), %rdi                               #68.76
        cmpq      %rax, %rdi                                    #68.76
        je        ..B1.147      # Prob 78%                      #68.76
                                # LOE rdi r15 r14b
..B1.146:                       # Preds ..B1.224
                                # Execution count [0.00e+00]: Infreq
#       operator delete(void *)
        call      _ZdlPv                                        #68.76
                                # LOE r15 r14b
..B1.147:                       # Preds ..B1.146 ..B1.224
                                # Execution count [0.00e+00]: Infreq
        testb     %r14b, %r14b                                  #68.9
        je        ..B1.135      # Prob 78%                      #68.9
                                # LOE r15
..B1.148:                       # Preds ..B1.150 ..B1.147
                                # Execution count [0.00e+00]: Infreq
        movq      %r15, %rdi                                    #68.9
        movl      $48, %esi                                     #68.9
#       operator delete(void *, unsigned long)
        call      _ZdlPvm                                       #68.9
        jmp       ..B1.135      # Prob 100%                     #68.9
                                # LOE
..___tag_value_main.22:
..B1.150:                       # Preds ..B1.96
                                # Execution count [0.00e+00]: Infreq
        movq      %rax, (%rsp)                                  #68.76
        jmp       ..B1.148      # Prob 100%                     #68.76
                                # LOE r15
..___tag_value_main.21:
..B1.152:                       # Preds ..B1.89 ..B1.88
                                # Execution count [0.00e+00]: Infreq
        movq      %rax, (%rsp)                                  #67.76
                                # LOE r15 r14b
..B1.153:                       # Preds ..B1.152
                                # Execution count [0.00e+00]: Infreq
        lea       240(%rsp), %rdi                               #67.76
..___tag_value_main.190:
#       std::pointer_traits<std::__cxx11::basic_string<char, std::char_traits<char>, std::allocator<char>>::const_pointer>::pointer_to(std::__ptrtr_not_void<std::pointer_traits<std::__cxx11::basic_string<char, std::char_traits<char>, std::allocator<char>>::const_pointer>::element_type, std::remove_cv<std::pointer_traits<std::__cxx11::basic_string<char, std::char_traits<char>, std::allocator<char>>::const_pointer>::element_type>::type>::__type &)
        call      _ZNSt14pointer_traitsIPKcE10pointer_toERS0_   #67.76
..___tag_value_main.191:
                                # LOE rax r15 r14b
..B1.225:                       # Preds ..B1.153
                                # Execution count [0.00e+00]: Infreq
        movq      224(%rsp), %rdi                               #67.76
        cmpq      %rax, %rdi                                    #67.76
        je        ..B1.155      # Prob 78%                      #67.76
                                # LOE rdi r15 r14b
..B1.154:                       # Preds ..B1.225
                                # Execution count [0.00e+00]: Infreq
#       operator delete(void *)
        call      _ZdlPv                                        #67.76
                                # LOE r15 r14b
..B1.155:                       # Preds ..B1.154 ..B1.225
                                # Execution count [0.00e+00]: Infreq
        testb     %r14b, %r14b                                  #67.9
        je        ..B1.135      # Prob 78%                      #67.9
                                # LOE r15
..B1.156:                       # Preds ..B1.158 ..B1.155
                                # Execution count [0.00e+00]: Infreq
        movq      %r15, %rdi                                    #67.9
        movl      $48, %esi                                     #67.9
#       operator delete(void *, unsigned long)
        call      _ZdlPvm                                       #67.9
        jmp       ..B1.135      # Prob 100%                     #67.9
                                # LOE
..___tag_value_main.20:
..B1.158:                       # Preds ..B1.86
                                # Execution count [0.00e+00]: Infreq
        movq      %rax, (%rsp)                                  #67.76
        jmp       ..B1.156      # Prob 100%                     #67.76
                                # LOE r15
..___tag_value_main.19:
..B1.160:                       # Preds ..B1.79 ..B1.78
                                # Execution count [0.00e+00]: Infreq
        movq      %rax, (%rsp)                                  #66.76
                                # LOE r15 r14b
..B1.161:                       # Preds ..B1.160
                                # Execution count [0.00e+00]: Infreq
        lea       240(%rsp), %rdi                               #66.76
..___tag_value_main.192:
#       std::pointer_traits<std::__cxx11::basic_string<char, std::char_traits<char>, std::allocator<char>>::const_pointer>::pointer_to(std::__ptrtr_not_void<std::pointer_traits<std::__cxx11::basic_string<char, std::char_traits<char>, std::allocator<char>>::const_pointer>::element_type, std::remove_cv<std::pointer_traits<std::__cxx11::basic_string<char, std::char_traits<char>, std::allocator<char>>::const_pointer>::element_type>::type>::__type &)
        call      _ZNSt14pointer_traitsIPKcE10pointer_toERS0_   #66.76
..___tag_value_main.193:
                                # LOE rax r15 r14b
..B1.226:                       # Preds ..B1.161
                                # Execution count [0.00e+00]: Infreq
        movq      224(%rsp), %rdi                               #66.76
        cmpq      %rax, %rdi                                    #66.76
        je        ..B1.163      # Prob 78%                      #66.76
                                # LOE rdi r15 r14b
..B1.162:                       # Preds ..B1.226
                                # Execution count [0.00e+00]: Infreq
#       operator delete(void *)
        call      _ZdlPv                                        #66.76
                                # LOE r15 r14b
..B1.163:                       # Preds ..B1.162 ..B1.226
                                # Execution count [0.00e+00]: Infreq
        testb     %r14b, %r14b                                  #66.9
        je        ..B1.135      # Prob 78%                      #66.9
                                # LOE r15
..B1.164:                       # Preds ..B1.166 ..B1.163
                                # Execution count [0.00e+00]: Infreq
        movq      %r15, %rdi                                    #66.9
        movl      $48, %esi                                     #66.9
#       operator delete(void *, unsigned long)
        call      _ZdlPvm                                       #66.9
        jmp       ..B1.135      # Prob 100%                     #66.9
                                # LOE
..___tag_value_main.18:
..B1.166:                       # Preds ..B1.76
                                # Execution count [0.00e+00]: Infreq
        movq      %rax, (%rsp)                                  #66.76
        jmp       ..B1.164      # Prob 100%                     #66.76
                                # LOE r15
..___tag_value_main.17:
..B1.168:                       # Preds ..B1.71
                                # Execution count [0.00e+00]: Infreq
        movq      %rax, (%rsp)                                  #65.54
                                # LOE r12
..B1.169:                       # Preds ..B1.168
                                # Execution count [0.00e+00]: Infreq
        lea       240(%rsp), %rdi                               #65.54
..___tag_value_main.194:
#       std::pointer_traits<std::__cxx11::basic_string<char, std::char_traits<char>, std::allocator<char>>::const_pointer>::pointer_to(std::__ptrtr_not_void<std::pointer_traits<std::__cxx11::basic_string<char, std::char_traits<char>, std::allocator<char>>::const_pointer>::element_type, std::remove_cv<std::pointer_traits<std::__cxx11::basic_string<char, std::char_traits<char>, std::allocator<char>>::const_pointer>::element_type>::type>::__type &)
        call      _ZNSt14pointer_traitsIPKcE10pointer_toERS0_   #65.54
..___tag_value_main.195:
                                # LOE rax r12
..B1.227:                       # Preds ..B1.169
                                # Execution count [0.00e+00]: Infreq
        movq      224(%rsp), %rdi                               #65.54
        cmpq      %rax, %rdi                                    #65.54
        je        ..B1.172      # Prob 78%                      #65.54
                                # LOE rdi r12
..B1.170:                       # Preds ..B1.227
                                # Execution count [0.00e+00]: Infreq
#       operator delete(void *)
        call      _ZdlPv                                        #65.54
                                # LOE r12
..B1.172:                       # Preds ..B1.227 ..B1.170 ..B1.174
                                # Execution count [0.00e+00]: Infreq
        movq      %r12, %rdi                                    #65.23
        movl      $96, %esi                                     #65.23
#       operator delete(void *, unsigned long)
        call      _ZdlPvm                                       #65.23
        jmp       ..B1.135      # Prob 100%                     #65.23
                                # LOE
..___tag_value_main.16:
..B1.174:                       # Preds ..B1.69
                                # Execution count [0.00e+00]: Infreq
        movq      %rax, (%rsp)                                  #65.23
        jmp       ..B1.172      # Prob 100%                     #65.23
                                # LOE r12
..___tag_value_main.14:
..___tag_value_main.1:
..B1.175:                       # Preds ..B1.3 ..B1.65
                                # Execution count [0.00e+00]: Infreq
        movq      %rax, (%rsp)                                  #64.48
        jmp       ..B1.132      # Prob 100%                     #64.48
                                # LOE
..___tag_value_main.2:
..B1.177:                       # Preds ..B1.60 ..B1.54 ..B1.48 ..B1.42 ..B1.32
                                #       ..B1.22 ..B1.12 ..B1.5
                                # Execution count [0.00e+00]: Infreq
        movq      %rax, (%rsp)                                  #49.48
                                # LOE
..B1.178:                       # Preds ..B1.215 ..B1.206 ..B1.207 ..B1.198 ..B1.199
                                #       ..B1.190 ..B1.191 ..B1.181 ..B1.177
                                # Execution count [0.00e+00]: Infreq
        lea       144(%rsp), %rdi                               #49.48
..___tag_value_main.196:
#       std::pointer_traits<std::__cxx11::basic_string<char, std::char_traits<char>, std::allocator<char>>::const_pointer>::pointer_to(std::__ptrtr_not_void<std::pointer_traits<std::__cxx11::basic_string<char, std::char_traits<char>, std::allocator<char>>::const_pointer>::element_type, std::remove_cv<std::pointer_traits<std::__cxx11::basic_string<char, std::char_traits<char>, std::allocator<char>>::const_pointer>::element_type>::type>::__type &)
        call      _ZNSt14pointer_traitsIPKcE10pointer_toERS0_   #49.48
..___tag_value_main.197:
                                # LOE rax
..B1.228:                       # Preds ..B1.178
                                # Execution count [0.00e+00]: Infreq
        movq      128(%rsp), %rdi                               #49.48
        cmpq      %rax, %rdi                                    #49.48
        je        ..B1.132      # Prob 78%                      #49.48
                                # LOE rdi
..B1.179:                       # Preds ..B1.228
                                # Execution count [0.00e+00]: Infreq
#       operator delete(void *)
        call      _ZdlPv                                        #49.48
        jmp       ..B1.132      # Prob 100%                     #49.48
                                # LOE
..___tag_value_main.13:
..___tag_value_main.12:
..___tag_value_main.11:
..B1.181:                       # Preds ..B1.45 ..B1.51 ..B1.57
                                # Execution count [0.00e+00]: Infreq
        movq      %rax, (%rsp)                                  #57.9
        jmp       ..B1.178      # Prob 100%                     #57.9
                                # LOE
..___tag_value_main.10:
..B1.187:                       # Preds ..B1.37 ..B1.36
                                # Execution count [0.00e+00]: Infreq
        movq      %rax, (%rsp)                                  #53.76
                                # LOE r15 r14b
..B1.188:                       # Preds ..B1.187
                                # Execution count [0.00e+00]: Infreq
        lea       176(%rsp), %rdi                               #53.76
..___tag_value_main.198:
#       std::pointer_traits<std::__cxx11::basic_string<char, std::char_traits<char>, std::allocator<char>>::const_pointer>::pointer_to(std::__ptrtr_not_void<std::pointer_traits<std::__cxx11::basic_string<char, std::char_traits<char>, std::allocator<char>>::const_pointer>::element_type, std::remove_cv<std::pointer_traits<std::__cxx11::basic_string<char, std::char_traits<char>, std::allocator<char>>::const_pointer>::element_type>::type>::__type &)
        call      _ZNSt14pointer_traitsIPKcE10pointer_toERS0_   #53.76
..___tag_value_main.199:
                                # LOE rax r15 r14b
..B1.229:                       # Preds ..B1.188
                                # Execution count [0.00e+00]: Infreq
        movq      160(%rsp), %rdi                               #53.76
        cmpq      %rax, %rdi                                    #53.76
        je        ..B1.190      # Prob 78%                      #53.76
                                # LOE rdi r15 r14b
..B1.189:                       # Preds ..B1.229
                                # Execution count [0.00e+00]: Infreq
#       operator delete(void *)
        call      _ZdlPv                                        #53.76
                                # LOE r15 r14b
..B1.190:                       # Preds ..B1.189 ..B1.229
                                # Execution count [0.00e+00]: Infreq
        testb     %r14b, %r14b                                  #53.9
        je        ..B1.178      # Prob 78%                      #53.9
                                # LOE r15
..B1.191:                       # Preds ..B1.193 ..B1.190
                                # Execution count [0.00e+00]: Infreq
        movq      %r15, %rdi                                    #53.9
        movl      $48, %esi                                     #53.9
#       operator delete(void *, unsigned long)
        call      _ZdlPvm                                       #53.9
        jmp       ..B1.178      # Prob 100%                     #53.9
                                # LOE
..___tag_value_main.9:
..B1.193:                       # Preds ..B1.34
                                # Execution count [0.00e+00]: Infreq
        movq      %rax, (%rsp)                                  #53.76
        jmp       ..B1.191      # Prob 100%                     #53.76
                                # LOE r15
..___tag_value_main.8:
..B1.195:                       # Preds ..B1.27 ..B1.26
                                # Execution count [0.00e+00]: Infreq
        movq      %rax, (%rsp)                                  #52.76
                                # LOE r15 r14b
..B1.196:                       # Preds ..B1.195
                                # Execution count [0.00e+00]: Infreq
        lea       176(%rsp), %rdi                               #52.76
..___tag_value_main.200:
#       std::pointer_traits<std::__cxx11::basic_string<char, std::char_traits<char>, std::allocator<char>>::const_pointer>::pointer_to(std::__ptrtr_not_void<std::pointer_traits<std::__cxx11::basic_string<char, std::char_traits<char>, std::allocator<char>>::const_pointer>::element_type, std::remove_cv<std::pointer_traits<std::__cxx11::basic_string<char, std::char_traits<char>, std::allocator<char>>::const_pointer>::element_type>::type>::__type &)
        call      _ZNSt14pointer_traitsIPKcE10pointer_toERS0_   #52.76
..___tag_value_main.201:
                                # LOE rax r15 r14b
..B1.230:                       # Preds ..B1.196
                                # Execution count [0.00e+00]: Infreq
        movq      160(%rsp), %rdi                               #52.76
        cmpq      %rax, %rdi                                    #52.76
        je        ..B1.198      # Prob 78%                      #52.76
                                # LOE rdi r15 r14b
..B1.197:                       # Preds ..B1.230
                                # Execution count [0.00e+00]: Infreq
#       operator delete(void *)
        call      _ZdlPv                                        #52.76
                                # LOE r15 r14b
..B1.198:                       # Preds ..B1.197 ..B1.230
                                # Execution count [0.00e+00]: Infreq
        testb     %r14b, %r14b                                  #52.9
        je        ..B1.178      # Prob 78%                      #52.9
                                # LOE r15
..B1.199:                       # Preds ..B1.201 ..B1.198
                                # Execution count [0.00e+00]: Infreq
        movq      %r15, %rdi                                    #52.9
        movl      $48, %esi                                     #52.9
#       operator delete(void *, unsigned long)
        call      _ZdlPvm                                       #52.9
        jmp       ..B1.178      # Prob 100%                     #52.9
                                # LOE
..___tag_value_main.7:
..B1.201:                       # Preds ..B1.24
                                # Execution count [0.00e+00]: Infreq
        movq      %rax, (%rsp)                                  #52.76
        jmp       ..B1.199      # Prob 100%                     #52.76
                                # LOE r15
..___tag_value_main.6:
..B1.203:                       # Preds ..B1.17 ..B1.16
                                # Execution count [0.00e+00]: Infreq
        movq      %rax, (%rsp)                                  #51.76
                                # LOE r15 r14b
..B1.204:                       # Preds ..B1.203
                                # Execution count [0.00e+00]: Infreq
        lea       176(%rsp), %rdi                               #51.76
..___tag_value_main.202:
#       std::pointer_traits<std::__cxx11::basic_string<char, std::char_traits<char>, std::allocator<char>>::const_pointer>::pointer_to(std::__ptrtr_not_void<std::pointer_traits<std::__cxx11::basic_string<char, std::char_traits<char>, std::allocator<char>>::const_pointer>::element_type, std::remove_cv<std::pointer_traits<std::__cxx11::basic_string<char, std::char_traits<char>, std::allocator<char>>::const_pointer>::element_type>::type>::__type &)
        call      _ZNSt14pointer_traitsIPKcE10pointer_toERS0_   #51.76
..___tag_value_main.203:
                                # LOE rax r15 r14b
..B1.231:                       # Preds ..B1.204
                                # Execution count [0.00e+00]: Infreq
        movq      160(%rsp), %rdi                               #51.76
        cmpq      %rax, %rdi                                    #51.76
        je        ..B1.206      # Prob 78%                      #51.76
                                # LOE rdi r15 r14b
..B1.205:                       # Preds ..B1.231
                                # Execution count [0.00e+00]: Infreq
#       operator delete(void *)
        call      _ZdlPv                                        #51.76
                                # LOE r15 r14b
..B1.206:                       # Preds ..B1.205 ..B1.231
                                # Execution count [0.00e+00]: Infreq
        testb     %r14b, %r14b                                  #51.9
        je        ..B1.178      # Prob 78%                      #51.9
                                # LOE r15
..B1.207:                       # Preds ..B1.209 ..B1.206
                                # Execution count [0.00e+00]: Infreq
        movq      %r15, %rdi                                    #51.9
        movl      $48, %esi                                     #51.9
#       operator delete(void *, unsigned long)
        call      _ZdlPvm                                       #51.9
        jmp       ..B1.178      # Prob 100%                     #51.9
                                # LOE
..___tag_value_main.5:
..B1.209:                       # Preds ..B1.14
                                # Execution count [0.00e+00]: Infreq
        movq      %rax, (%rsp)                                  #51.76
        jmp       ..B1.207      # Prob 100%                     #51.76
                                # LOE r15
..___tag_value_main.4:
..B1.211:                       # Preds ..B1.9
                                # Execution count [0.00e+00]: Infreq
        movq      %rax, (%rsp)                                  #50.54
                                # LOE r12
..B1.212:                       # Preds ..B1.211
                                # Execution count [0.00e+00]: Infreq
        lea       176(%rsp), %rdi                               #50.54
..___tag_value_main.204:
#       std::pointer_traits<std::__cxx11::basic_string<char, std::char_traits<char>, std::allocator<char>>::const_pointer>::pointer_to(std::__ptrtr_not_void<std::pointer_traits<std::__cxx11::basic_string<char, std::char_traits<char>, std::allocator<char>>::const_pointer>::element_type, std::remove_cv<std::pointer_traits<std::__cxx11::basic_string<char, std::char_traits<char>, std::allocator<char>>::const_pointer>::element_type>::type>::__type &)
        call      _ZNSt14pointer_traitsIPKcE10pointer_toERS0_   #50.54
..___tag_value_main.205:
                                # LOE rax r12
..B1.232:                       # Preds ..B1.212
                                # Execution count [0.00e+00]: Infreq
        movq      160(%rsp), %rdi                               #50.54
        cmpq      %rax, %rdi                                    #50.54
        je        ..B1.215      # Prob 78%                      #50.54
                                # LOE rdi r12
..B1.213:                       # Preds ..B1.232
                                # Execution count [0.00e+00]: Infreq
#       operator delete(void *)
        call      _ZdlPv                                        #50.54
                                # LOE r12
..B1.215:                       # Preds ..B1.232 ..B1.213 ..B1.217
                                # Execution count [0.00e+00]: Infreq
        movq      %r12, %rdi                                    #50.23
        movl      $96, %esi                                     #50.23
#       operator delete(void *, unsigned long)
        call      _ZdlPvm                                       #50.23
        jmp       ..B1.178      # Prob 100%                     #50.23
                                # LOE
..___tag_value_main.3:
..B1.217:                       # Preds ..B1.7
                                # Execution count [0.00e+00]: Infreq
        movq      %rax, (%rsp)                                  #50.23
        jmp       ..B1.215      # Prob 100%                     #50.23
        .align    16,0x90
                                # LOE r12
	.cfi_endproc
# mark_end;
	.type	main,@function
	.size	main,.-main
	.section .gcc_except_table, "a"
	.align 4
main$$LSDA:
	.byte	255
	.byte	0
	.uleb128	..___tag_value_main.210 - ..___tag_value_main.209
..___tag_value_main.209:
	.byte	1
	.uleb128	..___tag_value_main.208 - ..___tag_value_main.207
..___tag_value_main.207:
	.uleb128	..___tag_value_main.38 - ..___tag_value_main.28
	.uleb128	..___tag_value_main.39 - ..___tag_value_main.38
	.byte	0
	.byte	0
	.uleb128	..___tag_value_main.41 - ..___tag_value_main.28
	.uleb128	..___tag_value_main.42 - ..___tag_value_main.41
	.uleb128	..___tag_value_main.1 - ..___tag_value_main.28
	.byte	0
	.uleb128	..___tag_value_main.44 - ..___tag_value_main.28
	.uleb128	..___tag_value_main.45 - ..___tag_value_main.44
	.uleb128	..___tag_value_main.2 - ..___tag_value_main.28
	.byte	0
	.uleb128	..___tag_value_main.47 - ..___tag_value_main.28
	.uleb128	..___tag_value_main.48 - ..___tag_value_main.47
	.uleb128	..___tag_value_main.3 - ..___tag_value_main.28
	.byte	0
	.uleb128	..___tag_value_main.50 - ..___tag_value_main.28
	.uleb128	..___tag_value_main.51 - ..___tag_value_main.50
	.uleb128	..___tag_value_main.4 - ..___tag_value_main.28
	.byte	0
	.uleb128	..___tag_value_main.52 - ..___tag_value_main.28
	.uleb128	..___tag_value_main.53 - ..___tag_value_main.52
	.uleb128	..___tag_value_main.2 - ..___tag_value_main.28
	.byte	0
	.uleb128	..___tag_value_main.55 - ..___tag_value_main.28
	.uleb128	..___tag_value_main.56 - ..___tag_value_main.55
	.uleb128	..___tag_value_main.5 - ..___tag_value_main.28
	.byte	0
	.uleb128	..___tag_value_main.58 - ..___tag_value_main.28
	.uleb128	..___tag_value_main.61 - ..___tag_value_main.58
	.uleb128	..___tag_value_main.6 - ..___tag_value_main.28
	.byte	0
	.uleb128	..___tag_value_main.62 - ..___tag_value_main.28
	.uleb128	..___tag_value_main.63 - ..___tag_value_main.62
	.uleb128	..___tag_value_main.2 - ..___tag_value_main.28
	.byte	0
	.uleb128	..___tag_value_main.65 - ..___tag_value_main.28
	.uleb128	..___tag_value_main.66 - ..___tag_value_main.65
	.uleb128	..___tag_value_main.7 - ..___tag_value_main.28
	.byte	0
	.uleb128	..___tag_value_main.68 - ..___tag_value_main.28
	.uleb128	..___tag_value_main.71 - ..___tag_value_main.68
	.uleb128	..___tag_value_main.8 - ..___tag_value_main.28
	.byte	0
	.uleb128	..___tag_value_main.72 - ..___tag_value_main.28
	.uleb128	..___tag_value_main.73 - ..___tag_value_main.72
	.uleb128	..___tag_value_main.2 - ..___tag_value_main.28
	.byte	0
	.uleb128	..___tag_value_main.75 - ..___tag_value_main.28
	.uleb128	..___tag_value_main.76 - ..___tag_value_main.75
	.uleb128	..___tag_value_main.9 - ..___tag_value_main.28
	.byte	0
	.uleb128	..___tag_value_main.78 - ..___tag_value_main.28
	.uleb128	..___tag_value_main.81 - ..___tag_value_main.78
	.uleb128	..___tag_value_main.10 - ..___tag_value_main.28
	.byte	0
	.uleb128	..___tag_value_main.82 - ..___tag_value_main.28
	.uleb128	..___tag_value_main.83 - ..___tag_value_main.82
	.uleb128	..___tag_value_main.2 - ..___tag_value_main.28
	.byte	0
	.uleb128	..___tag_value_main.84 - ..___tag_value_main.28
	.uleb128	..___tag_value_main.87 - ..___tag_value_main.84
	.uleb128	..___tag_value_main.11 - ..___tag_value_main.28
	.byte	0
	.uleb128	..___tag_value_main.88 - ..___tag_value_main.28
	.uleb128	..___tag_value_main.89 - ..___tag_value_main.88
	.uleb128	..___tag_value_main.2 - ..___tag_value_main.28
	.byte	0
	.uleb128	..___tag_value_main.90 - ..___tag_value_main.28
	.uleb128	..___tag_value_main.93 - ..___tag_value_main.90
	.uleb128	..___tag_value_main.12 - ..___tag_value_main.28
	.byte	0
	.uleb128	..___tag_value_main.94 - ..___tag_value_main.28
	.uleb128	..___tag_value_main.95 - ..___tag_value_main.94
	.uleb128	..___tag_value_main.2 - ..___tag_value_main.28
	.byte	0
	.uleb128	..___tag_value_main.96 - ..___tag_value_main.28
	.uleb128	..___tag_value_main.99 - ..___tag_value_main.96
	.uleb128	..___tag_value_main.13 - ..___tag_value_main.28
	.byte	0
	.uleb128	..___tag_value_main.100 - ..___tag_value_main.28
	.uleb128	..___tag_value_main.101 - ..___tag_value_main.100
	.uleb128	..___tag_value_main.2 - ..___tag_value_main.28
	.byte	0
	.uleb128	..___tag_value_main.103 - ..___tag_value_main.28
	.uleb128	..___tag_value_main.104 - ..___tag_value_main.103
	.uleb128	..___tag_value_main.14 - ..___tag_value_main.28
	.byte	0
	.uleb128	..___tag_value_main.106 - ..___tag_value_main.28
	.uleb128	..___tag_value_main.107 - ..___tag_value_main.106
	.uleb128	..___tag_value_main.15 - ..___tag_value_main.28
	.byte	0
	.uleb128	..___tag_value_main.109 - ..___tag_value_main.28
	.uleb128	..___tag_value_main.110 - ..___tag_value_main.109
	.uleb128	..___tag_value_main.16 - ..___tag_value_main.28
	.byte	0
	.uleb128	..___tag_value_main.112 - ..___tag_value_main.28
	.uleb128	..___tag_value_main.113 - ..___tag_value_main.112
	.uleb128	..___tag_value_main.17 - ..___tag_value_main.28
	.byte	0
	.uleb128	..___tag_value_main.114 - ..___tag_value_main.28
	.uleb128	..___tag_value_main.115 - ..___tag_value_main.114
	.uleb128	..___tag_value_main.15 - ..___tag_value_main.28
	.byte	0
	.uleb128	..___tag_value_main.117 - ..___tag_value_main.28
	.uleb128	..___tag_value_main.118 - ..___tag_value_main.117
	.uleb128	..___tag_value_main.18 - ..___tag_value_main.28
	.byte	0
	.uleb128	..___tag_value_main.120 - ..___tag_value_main.28
	.uleb128	..___tag_value_main.123 - ..___tag_value_main.120
	.uleb128	..___tag_value_main.19 - ..___tag_value_main.28
	.byte	0
	.uleb128	..___tag_value_main.124 - ..___tag_value_main.28
	.uleb128	..___tag_value_main.125 - ..___tag_value_main.124
	.uleb128	..___tag_value_main.15 - ..___tag_value_main.28
	.byte	0
	.uleb128	..___tag_value_main.127 - ..___tag_value_main.28
	.uleb128	..___tag_value_main.128 - ..___tag_value_main.127
	.uleb128	..___tag_value_main.20 - ..___tag_value_main.28
	.byte	0
	.uleb128	..___tag_value_main.130 - ..___tag_value_main.28
	.uleb128	..___tag_value_main.133 - ..___tag_value_main.130
	.uleb128	..___tag_value_main.21 - ..___tag_value_main.28
	.byte	0
	.uleb128	..___tag_value_main.134 - ..___tag_value_main.28
	.uleb128	..___tag_value_main.135 - ..___tag_value_main.134
	.uleb128	..___tag_value_main.15 - ..___tag_value_main.28
	.byte	0
	.uleb128	..___tag_value_main.137 - ..___tag_value_main.28
	.uleb128	..___tag_value_main.138 - ..___tag_value_main.137
	.uleb128	..___tag_value_main.22 - ..___tag_value_main.28
	.byte	0
	.uleb128	..___tag_value_main.140 - ..___tag_value_main.28
	.uleb128	..___tag_value_main.143 - ..___tag_value_main.140
	.uleb128	..___tag_value_main.23 - ..___tag_value_main.28
	.byte	0
	.uleb128	..___tag_value_main.144 - ..___tag_value_main.28
	.uleb128	..___tag_value_main.145 - ..___tag_value_main.144
	.uleb128	..___tag_value_main.15 - ..___tag_value_main.28
	.byte	0
	.uleb128	..___tag_value_main.146 - ..___tag_value_main.28
	.uleb128	..___tag_value_main.149 - ..___tag_value_main.146
	.uleb128	..___tag_value_main.24 - ..___tag_value_main.28
	.byte	0
	.uleb128	..___tag_value_main.150 - ..___tag_value_main.28
	.uleb128	..___tag_value_main.151 - ..___tag_value_main.150
	.uleb128	..___tag_value_main.15 - ..___tag_value_main.28
	.byte	0
	.uleb128	..___tag_value_main.152 - ..___tag_value_main.28
	.uleb128	..___tag_value_main.155 - ..___tag_value_main.152
	.uleb128	..___tag_value_main.25 - ..___tag_value_main.28
	.byte	0
	.uleb128	..___tag_value_main.156 - ..___tag_value_main.28
	.uleb128	..___tag_value_main.157 - ..___tag_value_main.156
	.uleb128	..___tag_value_main.15 - ..___tag_value_main.28
	.byte	0
	.uleb128	..___tag_value_main.158 - ..___tag_value_main.28
	.uleb128	..___tag_value_main.161 - ..___tag_value_main.158
	.uleb128	..___tag_value_main.26 - ..___tag_value_main.28
	.byte	0
	.uleb128	..___tag_value_main.162 - ..___tag_value_main.28
	.uleb128	..___tag_value_main.163 - ..___tag_value_main.162
	.uleb128	..___tag_value_main.15 - ..___tag_value_main.28
	.byte	0
	.uleb128	..___tag_value_main.164 - ..___tag_value_main.28
	.uleb128	..___tag_value_main.165 - ..___tag_value_main.164
	.uleb128	..___tag_value_main.27 - ..___tag_value_main.28
	.byte	0
	.uleb128	..___tag_value_main.166 - ..___tag_value_main.28
	.uleb128	..___tag_value_main.167 - ..___tag_value_main.166
	.byte	0
	.byte	0
	.uleb128	..___tag_value_main.184 - ..___tag_value_main.28
	.uleb128	..___tag_value_main.185 - ..___tag_value_main.184
	.byte	0
	.byte	0
..___tag_value_main.208:
	.byte	127
	.byte	0
	.long	0x00000000,0x00000000
..___tag_value_main.210:
	.byte	0
	.data
# -- End  main
	.section .text._ZNSt7__cxx114listIP13TestParameterSaIS2_EE14_M_create_nodeIJRKS2_EEEPSt10_List_nodeIS2_EDpOT_, "xaG",@progbits,_ZNSt7__cxx114listIP13TestParameterSaIS2_EE14_M_create_nodeIJRKS2_EEEPSt10_List_nodeIS2_EDpOT_,comdat
..TXTST1:
# -- Begin  _ZNSt7__cxx114listIP13TestParameterSaIS2_EE14_M_create_nodeIJRKS2_EEEPSt10_List_nodeIS2_EDpOT_
	.section .text._ZNSt7__cxx114listIP13TestParameterSaIS2_EE14_M_create_nodeIJRKS2_EEEPSt10_List_nodeIS2_EDpOT_, "xaG",@progbits,_ZNSt7__cxx114listIP13TestParameterSaIS2_EE14_M_create_nodeIJRKS2_EEEPSt10_List_nodeIS2_EDpOT_,comdat
# mark_begin;
       .align    16,0x90
	.weak _ZNSt7__cxx114listIP13TestParameterSaIS2_EE14_M_create_nodeIJRKS2_EEEPSt10_List_nodeIS2_EDpOT_
# --- std::__cxx11::list<TestParameter *, std::allocator<TestParameter *>>::_M_create_node<const std::__cxx11::list<TestParameter *, std::allocator<TestParameter *>>::value_type &>(std::__cxx11::list<TestParameter *, std::allocator<TestParameter *>> *, const std::__cxx11::list<TestParameter *, std::allocator<TestParameter *>>::value_type &)
_ZNSt7__cxx114listIP13TestParameterSaIS2_EE14_M_create_nodeIJRKS2_EEEPSt10_List_nodeIS2_EDpOT_:
# parameter 1: %rdi
# parameter 2: %rsi
..B2.1:                         # Preds ..B2.0
                                # Execution count [1.00e+00]
	.cfi_startproc
	.cfi_personality 0x3,__gxx_personality_v0
	.cfi_lsda 0xb, _ZNSt7__cxx114listIP13TestParameterSaIS2_EE14_M_create_nodeIJRKS2_EEEPSt10_List_nodeIS2_EDpOT_$$LSDA
..___tag_value__ZNSt7__cxx114listIP13TestParameterSaIS2_EE14_M_create_nodeIJRKS2_EEEPSt10_List_nodeIS2_EDpOT_.211:
..L212:
                                                        #570.2
        pushq     %rbx                                          #570.2
	.cfi_def_cfa_offset 16
	.cfi_offset 3, -16
        movl      $24, %edi                                     #571.23
        movq      %rsi, %rbx                                    #570.2
..___tag_value__ZNSt7__cxx114listIP13TestParameterSaIS2_EE14_M_create_nodeIJRKS2_EEEPSt10_List_nodeIS2_EDpOT_.215:
#       operator new(std::size_t)
        call      _Znwm                                         #571.23
..___tag_value__ZNSt7__cxx114listIP13TestParameterSaIS2_EE14_M_create_nodeIJRKS2_EEEPSt10_List_nodeIS2_EDpOT_.216:
                                # LOE rax rbx rbp r12 r13 r14 r15
..B2.2:                         # Preds ..B2.1
                                # Execution count [1.00e+00]
        testq     %rax, %rax                                    #574.32
        je        ..B2.5        # Prob 32%                      #574.32
                                # LOE rax rbx rbp r12 r13 r14 r15
..B2.3:                         # Preds ..B2.2
                                # Execution count [6.74e-01]
        vpxor     %xmm0, %xmm0, %xmm0                           #574.32
        vmovups   %xmm0, (%rax)                                 #574.32
                                # LOE rax rbx rbp r12 r13 r14 r15
..B2.4:                         # Preds ..B2.3
                                # Execution count [6.74e-01]
        movq      (%rbx), %rdx                                  #574.32
        movq      %rdx, 16(%rax)                                #574.32
                                # LOE rax rbp r12 r13 r14 r15
..B2.5:                         # Preds ..B2.2 ..B2.4
                                # Execution count [1.00e+00]
	.cfi_restore 3
        popq      %rbx                                          #582.4
	.cfi_def_cfa_offset 8
        ret                                                     #582.4
        .align    16,0x90
                                # LOE
	.cfi_endproc
# mark_end;
	.type	_ZNSt7__cxx114listIP13TestParameterSaIS2_EE14_M_create_nodeIJRKS2_EEEPSt10_List_nodeIS2_EDpOT_,@function
	.size	_ZNSt7__cxx114listIP13TestParameterSaIS2_EE14_M_create_nodeIJRKS2_EEEPSt10_List_nodeIS2_EDpOT_,.-_ZNSt7__cxx114listIP13TestParameterSaIS2_EE14_M_create_nodeIJRKS2_EEEPSt10_List_nodeIS2_EDpOT_
	.section .gcc_except_table, "a"
	.align 4
_ZNSt7__cxx114listIP13TestParameterSaIS2_EE14_M_create_nodeIJRKS2_EEEPSt10_List_nodeIS2_EDpOT_$$LSDA:
	.byte	255
	.byte	0
	.uleb128	..___tag_value__ZNSt7__cxx114listIP13TestParameterSaIS2_EE14_M_create_nodeIJRKS2_EEEPSt10_List_nodeIS2_EDpOT_.223 - ..___tag_value__ZNSt7__cxx114listIP13TestParameterSaIS2_EE14_M_create_nodeIJRKS2_EEEPSt10_List_nodeIS2_EDpOT_.222
..___tag_value__ZNSt7__cxx114listIP13TestParameterSaIS2_EE14_M_create_nodeIJRKS2_EEEPSt10_List_nodeIS2_EDpOT_.222:
	.byte	1
	.uleb128	..___tag_value__ZNSt7__cxx114listIP13TestParameterSaIS2_EE14_M_create_nodeIJRKS2_EEEPSt10_List_nodeIS2_EDpOT_.221 - ..___tag_value__ZNSt7__cxx114listIP13TestParameterSaIS2_EE14_M_create_nodeIJRKS2_EEEPSt10_List_nodeIS2_EDpOT_.220
..___tag_value__ZNSt7__cxx114listIP13TestParameterSaIS2_EE14_M_create_nodeIJRKS2_EEEPSt10_List_nodeIS2_EDpOT_.220:
	.uleb128	..___tag_value__ZNSt7__cxx114listIP13TestParameterSaIS2_EE14_M_create_nodeIJRKS2_EEEPSt10_List_nodeIS2_EDpOT_.215 - ..___tag_value__ZNSt7__cxx114listIP13TestParameterSaIS2_EE14_M_create_nodeIJRKS2_EEEPSt10_List_nodeIS2_EDpOT_.211
	.uleb128	..___tag_value__ZNSt7__cxx114listIP13TestParameterSaIS2_EE14_M_create_nodeIJRKS2_EEEPSt10_List_nodeIS2_EDpOT_.216 - ..___tag_value__ZNSt7__cxx114listIP13TestParameterSaIS2_EE14_M_create_nodeIJRKS2_EEEPSt10_List_nodeIS2_EDpOT_.215
	.byte	0
	.byte	0
..___tag_value__ZNSt7__cxx114listIP13TestParameterSaIS2_EE14_M_create_nodeIJRKS2_EEEPSt10_List_nodeIS2_EDpOT_.221:
	.byte	1
	.byte	0
	.long	0x00000000,0x00000000
..___tag_value__ZNSt7__cxx114listIP13TestParameterSaIS2_EE14_M_create_nodeIJRKS2_EEEPSt10_List_nodeIS2_EDpOT_.223:
	.data
# -- End  _ZNSt7__cxx114listIP13TestParameterSaIS2_EE14_M_create_nodeIJRKS2_EEEPSt10_List_nodeIS2_EDpOT_
	.section .text._ZNSt7__cxx1110_List_baseIP13TestParameterSaIS2_EE11_M_put_nodeEPSt10_List_nodeIS2_E, "xaG",@progbits,_ZNSt7__cxx1110_List_baseIP13TestParameterSaIS2_EE11_M_put_nodeEPSt10_List_nodeIS2_E,comdat
..TXTST2:
# -- Begin  _ZNSt7__cxx1110_List_baseIP13TestParameterSaIS2_EE11_M_put_nodeEPSt10_List_nodeIS2_E
	.section .text._ZNSt7__cxx1110_List_baseIP13TestParameterSaIS2_EE11_M_put_nodeEPSt10_List_nodeIS2_E, "xaG",@progbits,_ZNSt7__cxx1110_List_baseIP13TestParameterSaIS2_EE11_M_put_nodeEPSt10_List_nodeIS2_E,comdat
# mark_begin;
       .align    16,0x90
	.weak _ZNSt7__cxx1110_List_baseIP13TestParameterSaIS2_EE11_M_put_nodeEPSt10_List_nodeIS2_E
# --- std::__cxx11::_List_base<TestParameter *, std::allocator<TestParameter *>>::_M_put_node(std::__cxx11::_List_base<TestParameter *, std::allocator<TestParameter *>> *, std::_List_node<TestParameter *> *)
_ZNSt7__cxx1110_List_baseIP13TestParameterSaIS2_EE11_M_put_nodeEPSt10_List_nodeIS2_E:
# parameter 1: %rdi
# parameter 2: %rsi
..B3.1:                         # Preds ..B3.0
                                # Execution count [1.00e+00]
	.cfi_startproc
	.cfi_personality 0x3,__gxx_personality_v0
..___tag_value__ZNSt7__cxx1110_List_baseIP13TestParameterSaIS2_EE11_M_put_nodeEPSt10_List_nodeIS2_E.224:
..L225:
                                                        #396.7
        movq      %rsi, %rdi                                    #396.35
#       operator delete(void *)
        jmp       _ZdlPv                                        #396.35
        .align    16,0x90
                                # LOE
	.cfi_endproc
# mark_end;
	.type	_ZNSt7__cxx1110_List_baseIP13TestParameterSaIS2_EE11_M_put_nodeEPSt10_List_nodeIS2_E,@function
	.size	_ZNSt7__cxx1110_List_baseIP13TestParameterSaIS2_EE11_M_put_nodeEPSt10_List_nodeIS2_E,.-_ZNSt7__cxx1110_List_baseIP13TestParameterSaIS2_EE11_M_put_nodeEPSt10_List_nodeIS2_E
	.data
# -- End  _ZNSt7__cxx1110_List_baseIP13TestParameterSaIS2_EE11_M_put_nodeEPSt10_List_nodeIS2_E
	.section .text._ZNSt7__cxx114listIP4TestSaIS2_EE14_M_create_nodeIJRKS2_EEEPSt10_List_nodeIS2_EDpOT_, "xaG",@progbits,_ZNSt7__cxx114listIP4TestSaIS2_EE14_M_create_nodeIJRKS2_EEEPSt10_List_nodeIS2_EDpOT_,comdat
..TXTST3:
# -- Begin  _ZNSt7__cxx114listIP4TestSaIS2_EE14_M_create_nodeIJRKS2_EEEPSt10_List_nodeIS2_EDpOT_
	.section .text._ZNSt7__cxx114listIP4TestSaIS2_EE14_M_create_nodeIJRKS2_EEEPSt10_List_nodeIS2_EDpOT_, "xaG",@progbits,_ZNSt7__cxx114listIP4TestSaIS2_EE14_M_create_nodeIJRKS2_EEEPSt10_List_nodeIS2_EDpOT_,comdat
# mark_begin;
       .align    16,0x90
	.weak _ZNSt7__cxx114listIP4TestSaIS2_EE14_M_create_nodeIJRKS2_EEEPSt10_List_nodeIS2_EDpOT_
# --- std::__cxx11::list<Test *, std::allocator<Test *>>::_M_create_node<const std::__cxx11::list<Test *, std::allocator<Test *>>::value_type &>(std::__cxx11::list<Test *, std::allocator<Test *>> *, const std::__cxx11::list<Test *, std::allocator<Test *>>::value_type &)
_ZNSt7__cxx114listIP4TestSaIS2_EE14_M_create_nodeIJRKS2_EEEPSt10_List_nodeIS2_EDpOT_:
# parameter 1: %rdi
# parameter 2: %rsi
..B4.1:                         # Preds ..B4.0
                                # Execution count [1.00e+00]
	.cfi_startproc
	.cfi_personality 0x3,__gxx_personality_v0
	.cfi_lsda 0xb, _ZNSt7__cxx114listIP4TestSaIS2_EE14_M_create_nodeIJRKS2_EEEPSt10_List_nodeIS2_EDpOT_$$LSDA
..___tag_value__ZNSt7__cxx114listIP4TestSaIS2_EE14_M_create_nodeIJRKS2_EEEPSt10_List_nodeIS2_EDpOT_.227:
..L228:
                                                        #570.2
        pushq     %rbx                                          #570.2
	.cfi_def_cfa_offset 16
	.cfi_offset 3, -16
        movl      $24, %edi                                     #571.23
        movq      %rsi, %rbx                                    #570.2
..___tag_value__ZNSt7__cxx114listIP4TestSaIS2_EE14_M_create_nodeIJRKS2_EEEPSt10_List_nodeIS2_EDpOT_.231:
#       operator new(std::size_t)
        call      _Znwm                                         #571.23
..___tag_value__ZNSt7__cxx114listIP4TestSaIS2_EE14_M_create_nodeIJRKS2_EEEPSt10_List_nodeIS2_EDpOT_.232:
                                # LOE rax rbx rbp r12 r13 r14 r15
..B4.2:                         # Preds ..B4.1
                                # Execution count [1.00e+00]
        testq     %rax, %rax                                    #574.32
        je        ..B4.5        # Prob 32%                      #574.32
                                # LOE rax rbx rbp r12 r13 r14 r15
..B4.3:                         # Preds ..B4.2
                                # Execution count [6.74e-01]
        vpxor     %xmm0, %xmm0, %xmm0                           #574.32
        vmovups   %xmm0, (%rax)                                 #574.32
                                # LOE rax rbx rbp r12 r13 r14 r15
..B4.4:                         # Preds ..B4.3
                                # Execution count [6.74e-01]
        movq      (%rbx), %rdx                                  #574.32
        movq      %rdx, 16(%rax)                                #574.32
                                # LOE rax rbp r12 r13 r14 r15
..B4.5:                         # Preds ..B4.2 ..B4.4
                                # Execution count [1.00e+00]
	.cfi_restore 3
        popq      %rbx                                          #582.4
	.cfi_def_cfa_offset 8
        ret                                                     #582.4
        .align    16,0x90
                                # LOE
	.cfi_endproc
# mark_end;
	.type	_ZNSt7__cxx114listIP4TestSaIS2_EE14_M_create_nodeIJRKS2_EEEPSt10_List_nodeIS2_EDpOT_,@function
	.size	_ZNSt7__cxx114listIP4TestSaIS2_EE14_M_create_nodeIJRKS2_EEEPSt10_List_nodeIS2_EDpOT_,.-_ZNSt7__cxx114listIP4TestSaIS2_EE14_M_create_nodeIJRKS2_EEEPSt10_List_nodeIS2_EDpOT_
	.section .gcc_except_table, "a"
	.align 4
_ZNSt7__cxx114listIP4TestSaIS2_EE14_M_create_nodeIJRKS2_EEEPSt10_List_nodeIS2_EDpOT_$$LSDA:
	.byte	255
	.byte	0
	.uleb128	..___tag_value__ZNSt7__cxx114listIP4TestSaIS2_EE14_M_create_nodeIJRKS2_EEEPSt10_List_nodeIS2_EDpOT_.239 - ..___tag_value__ZNSt7__cxx114listIP4TestSaIS2_EE14_M_create_nodeIJRKS2_EEEPSt10_List_nodeIS2_EDpOT_.238
..___tag_value__ZNSt7__cxx114listIP4TestSaIS2_EE14_M_create_nodeIJRKS2_EEEPSt10_List_nodeIS2_EDpOT_.238:
	.byte	1
	.uleb128	..___tag_value__ZNSt7__cxx114listIP4TestSaIS2_EE14_M_create_nodeIJRKS2_EEEPSt10_List_nodeIS2_EDpOT_.237 - ..___tag_value__ZNSt7__cxx114listIP4TestSaIS2_EE14_M_create_nodeIJRKS2_EEEPSt10_List_nodeIS2_EDpOT_.236
..___tag_value__ZNSt7__cxx114listIP4TestSaIS2_EE14_M_create_nodeIJRKS2_EEEPSt10_List_nodeIS2_EDpOT_.236:
	.uleb128	..___tag_value__ZNSt7__cxx114listIP4TestSaIS2_EE14_M_create_nodeIJRKS2_EEEPSt10_List_nodeIS2_EDpOT_.231 - ..___tag_value__ZNSt7__cxx114listIP4TestSaIS2_EE14_M_create_nodeIJRKS2_EEEPSt10_List_nodeIS2_EDpOT_.227
	.uleb128	..___tag_value__ZNSt7__cxx114listIP4TestSaIS2_EE14_M_create_nodeIJRKS2_EEEPSt10_List_nodeIS2_EDpOT_.232 - ..___tag_value__ZNSt7__cxx114listIP4TestSaIS2_EE14_M_create_nodeIJRKS2_EEEPSt10_List_nodeIS2_EDpOT_.231
	.byte	0
	.byte	0
..___tag_value__ZNSt7__cxx114listIP4TestSaIS2_EE14_M_create_nodeIJRKS2_EEEPSt10_List_nodeIS2_EDpOT_.237:
	.byte	1
	.byte	0
	.long	0x00000000,0x00000000
..___tag_value__ZNSt7__cxx114listIP4TestSaIS2_EE14_M_create_nodeIJRKS2_EEEPSt10_List_nodeIS2_EDpOT_.239:
	.data
# -- End  _ZNSt7__cxx114listIP4TestSaIS2_EE14_M_create_nodeIJRKS2_EEEPSt10_List_nodeIS2_EDpOT_
	.section .text._ZNSt7__cxx1110_List_baseIP4TestSaIS2_EE11_M_put_nodeEPSt10_List_nodeIS2_E, "xaG",@progbits,_ZNSt7__cxx1110_List_baseIP4TestSaIS2_EE11_M_put_nodeEPSt10_List_nodeIS2_E,comdat
..TXTST4:
# -- Begin  _ZNSt7__cxx1110_List_baseIP4TestSaIS2_EE11_M_put_nodeEPSt10_List_nodeIS2_E
	.section .text._ZNSt7__cxx1110_List_baseIP4TestSaIS2_EE11_M_put_nodeEPSt10_List_nodeIS2_E, "xaG",@progbits,_ZNSt7__cxx1110_List_baseIP4TestSaIS2_EE11_M_put_nodeEPSt10_List_nodeIS2_E,comdat
# mark_begin;
       .align    16,0x90
	.weak _ZNSt7__cxx1110_List_baseIP4TestSaIS2_EE11_M_put_nodeEPSt10_List_nodeIS2_E
# --- std::__cxx11::_List_base<Test *, std::allocator<Test *>>::_M_put_node(std::__cxx11::_List_base<Test *, std::allocator<Test *>> *, std::_List_node<Test *> *)
_ZNSt7__cxx1110_List_baseIP4TestSaIS2_EE11_M_put_nodeEPSt10_List_nodeIS2_E:
# parameter 1: %rdi
# parameter 2: %rsi
..B5.1:                         # Preds ..B5.0
                                # Execution count [1.00e+00]
	.cfi_startproc
	.cfi_personality 0x3,__gxx_personality_v0
..___tag_value__ZNSt7__cxx1110_List_baseIP4TestSaIS2_EE11_M_put_nodeEPSt10_List_nodeIS2_E.240:
..L241:
                                                        #396.7
        movq      %rsi, %rdi                                    #396.35
#       operator delete(void *)
        jmp       _ZdlPv                                        #396.35
        .align    16,0x90
                                # LOE
	.cfi_endproc
# mark_end;
	.type	_ZNSt7__cxx1110_List_baseIP4TestSaIS2_EE11_M_put_nodeEPSt10_List_nodeIS2_E,@function
	.size	_ZNSt7__cxx1110_List_baseIP4TestSaIS2_EE11_M_put_nodeEPSt10_List_nodeIS2_E,.-_ZNSt7__cxx1110_List_baseIP4TestSaIS2_EE11_M_put_nodeEPSt10_List_nodeIS2_E
	.data
# -- End  _ZNSt7__cxx1110_List_baseIP4TestSaIS2_EE11_M_put_nodeEPSt10_List_nodeIS2_E
	.section .text._ZN4TestC1Eb, "xaG",@progbits,_ZN4TestC1Eb,comdat
..TXTST5:
# -- Begin  _ZN4TestC1Eb
	.section .text._ZN4TestC1Eb, "xaG",@progbits,_ZN4TestC1Eb,comdat
# mark_begin;
       .align    16,0x90
	.weak _ZN4TestC1Eb
# --- Test::Test(Test *, bool)
_ZN4TestC1Eb:
# parameter 1: %rdi
# parameter 2: %esi
..B6.1:                         # Preds ..B6.0
                                # Execution count [1.00e+00]
	.cfi_startproc
	.cfi_personality 0x3,__gxx_personality_v0
	.cfi_lsda 0xb, _ZN4TestC1Eb$$LSDA
..___tag_value__ZN4TestC1Eb.243:
..L244:
                                                        #53.73
        pushq     %r12                                          #53.73
	.cfi_def_cfa_offset 16
	.cfi_offset 12, -16
        pushq     %r13                                          #53.73
	.cfi_def_cfa_offset 24
	.cfi_offset 13, -24
        pushq     %rbp                                          #53.73
	.cfi_def_cfa_offset 32
	.cfi_offset 6, -32
        movq      %rdi, %r13                                    #53.73
        movl      %esi, %r12d                                   #53.73
        movq      $_ZTV4Test+16, (%r13)                         #53.73
        lea       16(%r13), %rbp                                #53.5
        movq      %rbp, %rdi                                    #53.5
        movl      $-1, -8(%rbp)                                 #53.5
..___tag_value__ZN4TestC1Eb.251:
#       std::__cxx11::list<unsigned long long, std::allocator<unsigned long long>>::list(std::__cxx11::list<unsigned long long, std::allocator<unsigned long long>> *)
        call      _ZNSt7__cxx114listIySaIyEEC1Ev                #53.5
..___tag_value__ZN4TestC1Eb.252:
                                # LOE rbx rbp r13 r14 r15 r12d
..B6.2:                         # Preds ..B6.1
                                # Execution count [1.00e+00]
        xorl      %eax, %eax                                    #53.5
        movl      %eax, 24(%rbp)                                #53.5
        movl      %eax, 28(%rbp)                                #53.5
        movl      %eax, 32(%rbp)                                #53.5
        movb      %r12b, 56(%r13)                               #53.38
        movb      $64, 192(%r13)                                #53.5
	.cfi_restore 6
        popq      %rbp                                          #53.74
	.cfi_def_cfa_offset 24
	.cfi_restore 13
        popq      %r13                                          #53.74
	.cfi_def_cfa_offset 16
	.cfi_restore 12
        popq      %r12                                          #53.74
	.cfi_def_cfa_offset 8
        ret                                                     #53.74
        .align    16,0x90
                                # LOE
	.cfi_endproc
# mark_end;
	.type	_ZN4TestC1Eb,@function
	.size	_ZN4TestC1Eb,.-_ZN4TestC1Eb
	.section .gcc_except_table, "a"
	.align 4
_ZN4TestC1Eb$$LSDA:
	.byte	255
	.byte	0
	.uleb128	..___tag_value__ZN4TestC1Eb.263 - ..___tag_value__ZN4TestC1Eb.262
..___tag_value__ZN4TestC1Eb.262:
	.byte	1
	.uleb128	..___tag_value__ZN4TestC1Eb.261 - ..___tag_value__ZN4TestC1Eb.260
..___tag_value__ZN4TestC1Eb.260:
	.uleb128	..___tag_value__ZN4TestC1Eb.251 - ..___tag_value__ZN4TestC1Eb.243
	.uleb128	..___tag_value__ZN4TestC1Eb.252 - ..___tag_value__ZN4TestC1Eb.251
	.byte	0
	.byte	0
..___tag_value__ZN4TestC1Eb.261:
	.long	0x00000000,0x00000000
..___tag_value__ZN4TestC1Eb.263:
	.data
# -- End  _ZN4TestC1Eb
	.section .text._ZNSt7__cxx114listIySaIyEEC1Ev, "xaG",@progbits,_ZNSt7__cxx114listIySaIyEEC1Ev,comdat
..TXTST6:
# -- Begin  _ZNSt7__cxx114listIySaIyEEC1Ev
	.section .text._ZNSt7__cxx114listIySaIyEEC1Ev, "xaG",@progbits,_ZNSt7__cxx114listIySaIyEEC1Ev,comdat
# mark_begin;
       .align    16,0x90
	.weak _ZNSt7__cxx114listIySaIyEEC1Ev
# --- std::__cxx11::list<unsigned long long, std::allocator<unsigned long long>>::list(std::__cxx11::list<unsigned long long, std::allocator<unsigned long long>> *)
_ZNSt7__cxx114listIySaIyEEC1Ev:
# parameter 1: %rdi
..B7.1:                         # Preds ..B7.0
                                # Execution count [1.00e+00]
	.cfi_startproc
	.cfi_personality 0x3,__gxx_personality_v0
	.cfi_lsda 0xb, _ZNSt7__cxx114listIySaIyEEC1Ev$$LSDA
..___tag_value__ZNSt7__cxx114listIySaIyEEC1Ev.264:
..L265:
                                                        #597.17
        vpxor     %xmm0, %xmm0, %xmm0                           #593.7
        vmovups   %xmm0, (%rdi)                                 #593.7
                                # LOE rbx rbp rdi r12 r13 r14 r15
..B7.2:                         # Preds ..B7.1
                                # Execution count [1.00e+00]
        movq      %rdi, (%rdi)                                  #593.7
        movq      %rdi, 8(%rdi)                                 #593.7
        movq      $0, 16(%rdi)                                  #593.7
        ret                                                     #597.19
        .align    16,0x90
                                # LOE
	.cfi_endproc
# mark_end;
	.type	_ZNSt7__cxx114listIySaIyEEC1Ev,@function
	.size	_ZNSt7__cxx114listIySaIyEEC1Ev,.-_ZNSt7__cxx114listIySaIyEEC1Ev
	.section .gcc_except_table, "a"
	.align 4
_ZNSt7__cxx114listIySaIyEEC1Ev$$LSDA:
	.byte	255
	.byte	0
	.uleb128	..___tag_value__ZNSt7__cxx114listIySaIyEEC1Ev.270 - ..___tag_value__ZNSt7__cxx114listIySaIyEEC1Ev.269
..___tag_value__ZNSt7__cxx114listIySaIyEEC1Ev.269:
	.byte	1
	.uleb128	..___tag_value__ZNSt7__cxx114listIySaIyEEC1Ev.268 - ..___tag_value__ZNSt7__cxx114listIySaIyEEC1Ev.267
..___tag_value__ZNSt7__cxx114listIySaIyEEC1Ev.267:
..___tag_value__ZNSt7__cxx114listIySaIyEEC1Ev.268:
	.byte	127
	.byte	0
	.long	0x00000000,0x00000000
..___tag_value__ZNSt7__cxx114listIySaIyEEC1Ev.270:
	.byte	0
	.data
# -- End  _ZNSt7__cxx114listIySaIyEEC1Ev
	.section .text._ZN16TimingStatisticsD1Ev, "xaG",@progbits,_ZN16TimingStatisticsD1Ev,comdat
..TXTST7:
# -- Begin  _ZN16TimingStatisticsD1Ev
	.section .text._ZN16TimingStatisticsD1Ev, "xaG",@progbits,_ZN16TimingStatisticsD1Ev,comdat
# mark_begin;
       .align    16,0x90
	.weak _ZN16TimingStatisticsD1Ev
# --- TimingStatistics::~TimingStatistics(TimingStatistics *)
_ZN16TimingStatisticsD1Ev:
# parameter 1: %rdi
..B8.1:                         # Preds ..B8.0
                                # Execution count [1.00e+00]
	.cfi_startproc
	.cfi_personality 0x3,__gxx_personality_v0
	.cfi_lsda 0xb, _ZN16TimingStatisticsD1Ev$$LSDA
..___tag_value__ZN16TimingStatisticsD1Ev.271:
..L272:
                                                        #21.25
        subq      $24, %rsp                                     #21.25
	.cfi_def_cfa_offset 32
        movq      (%rdi), %rax                                  #22.22
        cmpq      %rdi, %rax                                    #22.22
        je        ..B8.6        # Prob 10%                      #22.22
                                # LOE rax rbx rbp rdi r12 r13 r14 r15
..B8.2:                         # Preds ..B8.1
                                # Execution count [8.99e-01]
        movq      %r12, 8(%rsp)                                 #[spill]
	.cfi_offset 12, -24
        movq      %rax, %r12                                    #
        movq      %r13, (%rsp)                                  #[spill]
	.cfi_offset 13, -32
        movq      %rdi, %r13                                    #
                                # LOE rbx rbp r12 r13 r14 r15
..B8.3:                         # Preds ..B8.4 ..B8.2
                                # Execution count [5.00e+00]
        movq      %r12, %rdi                                    #22.22
        movq      (%r12), %r12                                  #22.22
#       operator delete(void *)
        call      _ZdlPv                                        #22.22
                                # LOE rbx rbp r12 r13 r14 r15
..B8.4:                         # Preds ..B8.3
                                # Execution count [5.00e+00]
        cmpq      %r13, %r12                                    #22.22
        jne       ..B8.3        # Prob 82%                      #22.22
                                # LOE rbx rbp r12 r13 r14 r15
..B8.5:                         # Preds ..B8.4
                                # Execution count [8.99e-01]
        movq      8(%rsp), %r12                                 #[spill]
	.cfi_restore 12
        movq      %r13, %rdi                                    #
        movq      (%rsp), %r13                                  #[spill]
	.cfi_restore 13
                                # LOE rbx rbp rdi r12 r13 r14 r15
..B8.6:                         # Preds ..B8.1 ..B8.5
                                # Execution count [1.00e+00]
        movq      %rdi, (%rdi)                                  #22.22
        movq      %rdi, 8(%rdi)                                 #22.22
        movq      $0, 16(%rdi)                                  #22.22
                                # LOE rbx rbp r12 r13 r14 r15
..B8.11:                        # Preds ..B8.6
                                # Execution count [1.00e+00]
        addq      $24, %rsp                                     #23.5
	.cfi_def_cfa_offset 8
        ret                                                     #23.5
        .align    16,0x90
                                # LOE
	.cfi_endproc
# mark_end;
	.type	_ZN16TimingStatisticsD1Ev,@function
	.size	_ZN16TimingStatisticsD1Ev,.-_ZN16TimingStatisticsD1Ev
	.section .gcc_except_table, "a"
	.align 4
_ZN16TimingStatisticsD1Ev$$LSDA:
	.byte	255
	.byte	0
	.uleb128	..___tag_value__ZN16TimingStatisticsD1Ev.283 - ..___tag_value__ZN16TimingStatisticsD1Ev.282
..___tag_value__ZN16TimingStatisticsD1Ev.282:
	.byte	1
	.uleb128	..___tag_value__ZN16TimingStatisticsD1Ev.281 - ..___tag_value__ZN16TimingStatisticsD1Ev.280
..___tag_value__ZN16TimingStatisticsD1Ev.280:
..___tag_value__ZN16TimingStatisticsD1Ev.281:
	.byte	127
	.byte	0
	.long	0x00000000,0x00000000
..___tag_value__ZN16TimingStatisticsD1Ev.283:
	.byte	0
	.data
# -- End  _ZN16TimingStatisticsD1Ev
	.section .text._ZNSt7__cxx114listIP12TestCategorySaIS2_EE9_M_insertIJRKS2_EEEvSt14_List_iteratorIS2_EDpOT_, "xaG",@progbits,_ZNSt7__cxx114listIP12TestCategorySaIS2_EE9_M_insertIJRKS2_EEEvSt14_List_iteratorIS2_EDpOT_,comdat
..TXTST8:
# -- Begin  _ZNSt7__cxx114listIP12TestCategorySaIS2_EE9_M_insertIJRKS2_EEEvSt14_List_iteratorIS2_EDpOT_
	.section .text._ZNSt7__cxx114listIP12TestCategorySaIS2_EE9_M_insertIJRKS2_EEEvSt14_List_iteratorIS2_EDpOT_, "xaG",@progbits,_ZNSt7__cxx114listIP12TestCategorySaIS2_EE9_M_insertIJRKS2_EEEvSt14_List_iteratorIS2_EDpOT_,comdat
# mark_begin;
       .align    16,0x90
	.weak _ZNSt7__cxx114listIP12TestCategorySaIS2_EE9_M_insertIJRKS2_EEEvSt14_List_iteratorIS2_EDpOT_
# --- std::__cxx11::list<TestCategory *, std::allocator<TestCategory *>>::_M_insert<const std::__cxx11::list<TestCategory *, std::allocator<TestCategory *>>::value_type &>(std::__cxx11::list<TestCategory *, std::allocator<TestCategory *>> *, std::__cxx11::list<TestCategory *, std::allocator<TestCategory *>>::iterator, const std::__cxx11::list<TestCategory *, std::allocator<TestCategory *>>::value_type &)
_ZNSt7__cxx114listIP12TestCategorySaIS2_EE9_M_insertIJRKS2_EEEvSt14_List_iteratorIS2_EDpOT_:
# parameter 1: %rdi
# parameter 2: %rsi
# parameter 3: %rdx
..B9.1:                         # Preds ..B9.0
                                # Execution count [1.00e+00]
	.cfi_startproc
	.cfi_personality 0x3,__gxx_personality_v0
	.cfi_lsda 0xb, _ZNSt7__cxx114listIP12TestCategorySaIS2_EE9_M_insertIJRKS2_EEEvSt14_List_iteratorIS2_EDpOT_$$LSDA
..___tag_value__ZNSt7__cxx114listIP12TestCategorySaIS2_EE9_M_insertIJRKS2_EEEvSt14_List_iteratorIS2_EDpOT_.284:
..L285:
                                                        #1762.8
        pushq     %r14                                          #1762.8
	.cfi_def_cfa_offset 16
	.cfi_offset 14, -16
        pushq     %r15                                          #1762.8
	.cfi_def_cfa_offset 24
	.cfi_offset 15, -24
        pushq     %rsi                                          #1762.8
	.cfi_def_cfa_offset 32
        movq      %rdi, %r15                                    #1762.8
        movl      $24, %edi                                     #1763.18
        movq      %rdx, %r14                                    #1762.8
        movq      %rsi, (%rsp)                                  #1762.8
..___tag_value__ZNSt7__cxx114listIP12TestCategorySaIS2_EE9_M_insertIJRKS2_EEEvSt14_List_iteratorIS2_EDpOT_.291:
#       operator new(std::size_t)
        call      _Znwm                                         #1763.18
..___tag_value__ZNSt7__cxx114listIP12TestCategorySaIS2_EE9_M_insertIJRKS2_EEEvSt14_List_iteratorIS2_EDpOT_.292:
                                # LOE rax rbx rbp r12 r13 r14 r15
..B9.9:                         # Preds ..B9.1
                                # Execution count [1.00e+00]
        movq      %rax, %rdi                                    #1763.18
                                # LOE rbx rbp rdi r12 r13 r14 r15
..B9.2:                         # Preds ..B9.9
                                # Execution count [1.00e+00]
        testq     %rdi, %rdi                                    #1763.18
        je        ..B9.5        # Prob 32%                      #1763.18
                                # LOE rbx rbp rdi r12 r13 r14 r15
..B9.3:                         # Preds ..B9.2
                                # Execution count [6.74e-01]
        vpxor     %xmm0, %xmm0, %xmm0                           #1763.18
        vmovups   %xmm0, (%rdi)                                 #1763.18
                                # LOE rbx rbp rdi r12 r13 r14 r15
..B9.4:                         # Preds ..B9.3
                                # Execution count [6.74e-01]
        movq      (%r14), %rax                                  #1763.18
        movq      %rax, 16(%rdi)                                #1763.18
                                # LOE rbx rbp rdi r12 r13 r15
..B9.5:                         # Preds ..B9.2 ..B9.4
                                # Execution count [1.00e+00]
        movq      (%rsp), %rsi                                  #1764.10
#       std::__detail::_List_node_base::_M_hook(std::__detail::_List_node_base *, std::__detail::_List_node_base *)
        call      _ZNSt8__detail15_List_node_base7_M_hookEPS0_  #1764.10
                                # LOE rbx rbp r12 r13 r15
..B9.6:                         # Preds ..B9.5
                                # Execution count [1.00e+00]
        incq      16(%r15)                                      #1765.9
        popq      %rcx                                          #1766.8
	.cfi_def_cfa_offset 24
	.cfi_restore 15
        popq      %r15                                          #1766.8
	.cfi_def_cfa_offset 16
	.cfi_restore 14
        popq      %r14                                          #1766.8
	.cfi_def_cfa_offset 8
        ret                                                     #1766.8
        .align    16,0x90
                                # LOE
	.cfi_endproc
# mark_end;
	.type	_ZNSt7__cxx114listIP12TestCategorySaIS2_EE9_M_insertIJRKS2_EEEvSt14_List_iteratorIS2_EDpOT_,@function
	.size	_ZNSt7__cxx114listIP12TestCategorySaIS2_EE9_M_insertIJRKS2_EEEvSt14_List_iteratorIS2_EDpOT_,.-_ZNSt7__cxx114listIP12TestCategorySaIS2_EE9_M_insertIJRKS2_EEEvSt14_List_iteratorIS2_EDpOT_
	.section .gcc_except_table, "a"
	.align 4
_ZNSt7__cxx114listIP12TestCategorySaIS2_EE9_M_insertIJRKS2_EEEvSt14_List_iteratorIS2_EDpOT_$$LSDA:
	.byte	255
	.byte	0
	.uleb128	..___tag_value__ZNSt7__cxx114listIP12TestCategorySaIS2_EE9_M_insertIJRKS2_EEEvSt14_List_iteratorIS2_EDpOT_.302 - ..___tag_value__ZNSt7__cxx114listIP12TestCategorySaIS2_EE9_M_insertIJRKS2_EEEvSt14_List_iteratorIS2_EDpOT_.301
..___tag_value__ZNSt7__cxx114listIP12TestCategorySaIS2_EE9_M_insertIJRKS2_EEEvSt14_List_iteratorIS2_EDpOT_.301:
	.byte	1
	.uleb128	..___tag_value__ZNSt7__cxx114listIP12TestCategorySaIS2_EE9_M_insertIJRKS2_EEEvSt14_List_iteratorIS2_EDpOT_.300 - ..___tag_value__ZNSt7__cxx114listIP12TestCategorySaIS2_EE9_M_insertIJRKS2_EEEvSt14_List_iteratorIS2_EDpOT_.299
..___tag_value__ZNSt7__cxx114listIP12TestCategorySaIS2_EE9_M_insertIJRKS2_EEEvSt14_List_iteratorIS2_EDpOT_.299:
	.uleb128	..___tag_value__ZNSt7__cxx114listIP12TestCategorySaIS2_EE9_M_insertIJRKS2_EEEvSt14_List_iteratorIS2_EDpOT_.291 - ..___tag_value__ZNSt7__cxx114listIP12TestCategorySaIS2_EE9_M_insertIJRKS2_EEEvSt14_List_iteratorIS2_EDpOT_.284
	.uleb128	..___tag_value__ZNSt7__cxx114listIP12TestCategorySaIS2_EE9_M_insertIJRKS2_EEEvSt14_List_iteratorIS2_EDpOT_.292 - ..___tag_value__ZNSt7__cxx114listIP12TestCategorySaIS2_EE9_M_insertIJRKS2_EEEvSt14_List_iteratorIS2_EDpOT_.291
	.byte	0
	.byte	0
..___tag_value__ZNSt7__cxx114listIP12TestCategorySaIS2_EE9_M_insertIJRKS2_EEEvSt14_List_iteratorIS2_EDpOT_.300:
	.byte	1
	.byte	0
	.long	0x00000000,0x00000000
..___tag_value__ZNSt7__cxx114listIP12TestCategorySaIS2_EE9_M_insertIJRKS2_EEEvSt14_List_iteratorIS2_EDpOT_.302:
	.data
# -- End  _ZNSt7__cxx114listIP12TestCategorySaIS2_EE9_M_insertIJRKS2_EEEvSt14_List_iteratorIS2_EDpOT_
	.section .text._ZNSt7__cxx1110_List_baseIP12TestCategorySaIS2_EE11_M_put_nodeEPSt10_List_nodeIS2_E, "xaG",@progbits,_ZNSt7__cxx1110_List_baseIP12TestCategorySaIS2_EE11_M_put_nodeEPSt10_List_nodeIS2_E,comdat
..TXTST9:
# -- Begin  _ZNSt7__cxx1110_List_baseIP12TestCategorySaIS2_EE11_M_put_nodeEPSt10_List_nodeIS2_E
	.section .text._ZNSt7__cxx1110_List_baseIP12TestCategorySaIS2_EE11_M_put_nodeEPSt10_List_nodeIS2_E, "xaG",@progbits,_ZNSt7__cxx1110_List_baseIP12TestCategorySaIS2_EE11_M_put_nodeEPSt10_List_nodeIS2_E,comdat
# mark_begin;
       .align    16,0x90
	.weak _ZNSt7__cxx1110_List_baseIP12TestCategorySaIS2_EE11_M_put_nodeEPSt10_List_nodeIS2_E
# --- std::__cxx11::_List_base<TestCategory *, std::allocator<TestCategory *>>::_M_put_node(std::__cxx11::_List_base<TestCategory *, std::allocator<TestCategory *>> *, std::_List_node<TestCategory *> *)
_ZNSt7__cxx1110_List_baseIP12TestCategorySaIS2_EE11_M_put_nodeEPSt10_List_nodeIS2_E:
# parameter 1: %rdi
# parameter 2: %rsi
..B10.1:                        # Preds ..B10.0
                                # Execution count [1.00e+00]
	.cfi_startproc
	.cfi_personality 0x3,__gxx_personality_v0
..___tag_value__ZNSt7__cxx1110_List_baseIP12TestCategorySaIS2_EE11_M_put_nodeEPSt10_List_nodeIS2_E.303:
..L304:
                                                        #396.7
        movq      %rsi, %rdi                                    #396.35
#       operator delete(void *)
        jmp       _ZdlPv                                        #396.35
        .align    16,0x90
                                # LOE
	.cfi_endproc
# mark_end;
	.type	_ZNSt7__cxx1110_List_baseIP12TestCategorySaIS2_EE11_M_put_nodeEPSt10_List_nodeIS2_E,@function
	.size	_ZNSt7__cxx1110_List_baseIP12TestCategorySaIS2_EE11_M_put_nodeEPSt10_List_nodeIS2_E,.-_ZNSt7__cxx1110_List_baseIP12TestCategorySaIS2_EE11_M_put_nodeEPSt10_List_nodeIS2_E
	.data
# -- End  _ZNSt7__cxx1110_List_baseIP12TestCategorySaIS2_EE11_M_put_nodeEPSt10_List_nodeIS2_E
	.section .text._ZNSt7__cxx114listIP12TestCategorySaIS2_EE14_M_create_nodeIJRKS2_EEEPSt10_List_nodeIS2_EDpOT_, "xaG",@progbits,_ZNSt7__cxx114listIP12TestCategorySaIS2_EE14_M_create_nodeIJRKS2_EEEPSt10_List_nodeIS2_EDpOT_,comdat
..TXTST10:
# -- Begin  _ZNSt7__cxx114listIP12TestCategorySaIS2_EE14_M_create_nodeIJRKS2_EEEPSt10_List_nodeIS2_EDpOT_
	.section .text._ZNSt7__cxx114listIP12TestCategorySaIS2_EE14_M_create_nodeIJRKS2_EEEPSt10_List_nodeIS2_EDpOT_, "xaG",@progbits,_ZNSt7__cxx114listIP12TestCategorySaIS2_EE14_M_create_nodeIJRKS2_EEEPSt10_List_nodeIS2_EDpOT_,comdat
# mark_begin;
       .align    16,0x90
	.weak _ZNSt7__cxx114listIP12TestCategorySaIS2_EE14_M_create_nodeIJRKS2_EEEPSt10_List_nodeIS2_EDpOT_
# --- std::__cxx11::list<TestCategory *, std::allocator<TestCategory *>>::_M_create_node<const std::__cxx11::list<TestCategory *, std::allocator<TestCategory *>>::value_type &>(std::__cxx11::list<TestCategory *, std::allocator<TestCategory *>> *, const std::__cxx11::list<TestCategory *, std::allocator<TestCategory *>>::value_type &)
_ZNSt7__cxx114listIP12TestCategorySaIS2_EE14_M_create_nodeIJRKS2_EEEPSt10_List_nodeIS2_EDpOT_:
# parameter 1: %rdi
# parameter 2: %rsi
..B11.1:                        # Preds ..B11.0
                                # Execution count [1.00e+00]
	.cfi_startproc
	.cfi_personality 0x3,__gxx_personality_v0
	.cfi_lsda 0xb, _ZNSt7__cxx114listIP12TestCategorySaIS2_EE14_M_create_nodeIJRKS2_EEEPSt10_List_nodeIS2_EDpOT_$$LSDA
..___tag_value__ZNSt7__cxx114listIP12TestCategorySaIS2_EE14_M_create_nodeIJRKS2_EEEPSt10_List_nodeIS2_EDpOT_.306:
..L307:
                                                        #570.2
        pushq     %rbx                                          #570.2
	.cfi_def_cfa_offset 16
	.cfi_offset 3, -16
        movl      $24, %edi                                     #571.23
        movq      %rsi, %rbx                                    #570.2
..___tag_value__ZNSt7__cxx114listIP12TestCategorySaIS2_EE14_M_create_nodeIJRKS2_EEEPSt10_List_nodeIS2_EDpOT_.310:
#       operator new(std::size_t)
        call      _Znwm                                         #571.23
..___tag_value__ZNSt7__cxx114listIP12TestCategorySaIS2_EE14_M_create_nodeIJRKS2_EEEPSt10_List_nodeIS2_EDpOT_.311:
                                # LOE rax rbx rbp r12 r13 r14 r15
..B11.2:                        # Preds ..B11.1
                                # Execution count [1.00e+00]
        testq     %rax, %rax                                    #574.32
        je        ..B11.5       # Prob 32%                      #574.32
                                # LOE rax rbx rbp r12 r13 r14 r15
..B11.3:                        # Preds ..B11.2
                                # Execution count [6.74e-01]
        vpxor     %xmm0, %xmm0, %xmm0                           #574.32
        vmovups   %xmm0, (%rax)                                 #574.32
                                # LOE rax rbx rbp r12 r13 r14 r15
..B11.4:                        # Preds ..B11.3
                                # Execution count [6.74e-01]
        movq      (%rbx), %rdx                                  #574.32
        movq      %rdx, 16(%rax)                                #574.32
                                # LOE rax rbp r12 r13 r14 r15
..B11.5:                        # Preds ..B11.2 ..B11.4
                                # Execution count [1.00e+00]
	.cfi_restore 3
        popq      %rbx                                          #582.4
	.cfi_def_cfa_offset 8
        ret                                                     #582.4
        .align    16,0x90
                                # LOE
	.cfi_endproc
# mark_end;
	.type	_ZNSt7__cxx114listIP12TestCategorySaIS2_EE14_M_create_nodeIJRKS2_EEEPSt10_List_nodeIS2_EDpOT_,@function
	.size	_ZNSt7__cxx114listIP12TestCategorySaIS2_EE14_M_create_nodeIJRKS2_EEEPSt10_List_nodeIS2_EDpOT_,.-_ZNSt7__cxx114listIP12TestCategorySaIS2_EE14_M_create_nodeIJRKS2_EEEPSt10_List_nodeIS2_EDpOT_
	.section .gcc_except_table, "a"
	.align 4
_ZNSt7__cxx114listIP12TestCategorySaIS2_EE14_M_create_nodeIJRKS2_EEEPSt10_List_nodeIS2_EDpOT_$$LSDA:
	.byte	255
	.byte	0
	.uleb128	..___tag_value__ZNSt7__cxx114listIP12TestCategorySaIS2_EE14_M_create_nodeIJRKS2_EEEPSt10_List_nodeIS2_EDpOT_.318 - ..___tag_value__ZNSt7__cxx114listIP12TestCategorySaIS2_EE14_M_create_nodeIJRKS2_EEEPSt10_List_nodeIS2_EDpOT_.317
..___tag_value__ZNSt7__cxx114listIP12TestCategorySaIS2_EE14_M_create_nodeIJRKS2_EEEPSt10_List_nodeIS2_EDpOT_.317:
	.byte	1
	.uleb128	..___tag_value__ZNSt7__cxx114listIP12TestCategorySaIS2_EE14_M_create_nodeIJRKS2_EEEPSt10_List_nodeIS2_EDpOT_.316 - ..___tag_value__ZNSt7__cxx114listIP12TestCategorySaIS2_EE14_M_create_nodeIJRKS2_EEEPSt10_List_nodeIS2_EDpOT_.315
..___tag_value__ZNSt7__cxx114listIP12TestCategorySaIS2_EE14_M_create_nodeIJRKS2_EEEPSt10_List_nodeIS2_EDpOT_.315:
	.uleb128	..___tag_value__ZNSt7__cxx114listIP12TestCategorySaIS2_EE14_M_create_nodeIJRKS2_EEEPSt10_List_nodeIS2_EDpOT_.310 - ..___tag_value__ZNSt7__cxx114listIP12TestCategorySaIS2_EE14_M_create_nodeIJRKS2_EEEPSt10_List_nodeIS2_EDpOT_.306
	.uleb128	..___tag_value__ZNSt7__cxx114listIP12TestCategorySaIS2_EE14_M_create_nodeIJRKS2_EEEPSt10_List_nodeIS2_EDpOT_.311 - ..___tag_value__ZNSt7__cxx114listIP12TestCategorySaIS2_EE14_M_create_nodeIJRKS2_EEEPSt10_List_nodeIS2_EDpOT_.310
	.byte	0
	.byte	0
..___tag_value__ZNSt7__cxx114listIP12TestCategorySaIS2_EE14_M_create_nodeIJRKS2_EEEPSt10_List_nodeIS2_EDpOT_.316:
	.byte	1
	.byte	0
	.long	0x00000000,0x00000000
..___tag_value__ZNSt7__cxx114listIP12TestCategorySaIS2_EE14_M_create_nodeIJRKS2_EEEPSt10_List_nodeIS2_EDpOT_.318:
	.data
# -- End  _ZNSt7__cxx114listIP12TestCategorySaIS2_EE14_M_create_nodeIJRKS2_EEEPSt10_List_nodeIS2_EDpOT_
	.section .text._ZNSt7__cxx1112basic_stringIcSt11char_traitsIcESaIcEE12_M_constructIPcEEvT_S7_St20forward_iterator_tag, "xaG",@progbits,_ZNSt7__cxx1112basic_stringIcSt11char_traitsIcESaIcEE12_M_constructIPcEEvT_S7_St20forward_iterator_tag,comdat
..TXTST11:
# -- Begin  _ZNSt7__cxx1112basic_stringIcSt11char_traitsIcESaIcEE12_M_constructIPcEEvT_S7_St20forward_iterator_tag
	.section .text._ZNSt7__cxx1112basic_stringIcSt11char_traitsIcESaIcEE12_M_constructIPcEEvT_S7_St20forward_iterator_tag, "xaG",@progbits,_ZNSt7__cxx1112basic_stringIcSt11char_traitsIcESaIcEE12_M_constructIPcEEvT_S7_St20forward_iterator_tag,comdat
# mark_begin;
       .align    16,0x90
	.weak _ZNSt7__cxx1112basic_stringIcSt11char_traitsIcESaIcEE12_M_constructIPcEEvT_S7_St20forward_iterator_tag
# --- std::__cxx11::basic_string<char, std::char_traits<char>, std::allocator<char>>::_M_construct<std::__cxx11::basic_string<char, std::char_traits<char>, std::allocator<char>>::pointer>(std::__cxx11::basic_string<char, std::char_traits<char>, std::allocator<char>> *, std::__cxx11::basic_string<char, std::char_traits<char>, std::allocator<char>>::pointer, std::__cxx11::basic_string<char, std::char_traits<char>, std::allocator<char>>::pointer, std::forward_iterator_tag)
_ZNSt7__cxx1112basic_stringIcSt11char_traitsIcESaIcEE12_M_constructIPcEEvT_S7_St20forward_iterator_tag:
# parameter 1: %rdi
# parameter 2: %rsi
# parameter 3: %rdx
# parameter 4: 48 + %rsp
..B12.1:                        # Preds ..B12.0
                                # Execution count [1.00e+00]
	.cfi_startproc
	.cfi_personality 0x3,__gxx_personality_v0
..___tag_value__ZNSt7__cxx1112basic_stringIcSt11char_traitsIcESaIcEE12_M_constructIPcEEvT_S7_St20forward_iterator_tag.319:
..L320:
                                                        #213.7
        pushq     %r14                                          #213.7
	.cfi_def_cfa_offset 16
	.cfi_offset 14, -16
        pushq     %r15                                          #213.7
	.cfi_def_cfa_offset 24
	.cfi_offset 15, -24
        pushq     %rbx                                          #213.7
	.cfi_def_cfa_offset 32
	.cfi_offset 3, -32
        subq      $16, %rsp                                     #213.7
	.cfi_def_cfa_offset 48
        movq      %rsi, %r14                                    #213.7
        movq      %rdx, %rbx                                    #213.7
        movq      %rdi, %r15                                    #213.7
        testq     %r14, %r14                                    #215.6
        jne       ..B12.3       # Prob 22%                      #215.6
                                # LOE rbx rbp r12 r13 r14 r15
..B12.2:                        # Preds ..B12.1
                                # Execution count [7.80e-01]
        testq     %rbx, %rbx                                    #215.54
        jne       ..B12.13      # Prob 0%                       #215.54
                                # LOE rbx rbp r12 r13 r14 r15
..B12.3:                        # Preds ..B12.2 ..B12.1
                                # Execution count [9.96e-01]
        subq      %r14, %rbx                                    #219.65
        movq      %rbx, (%rsp)                                  #219.19
        movq      %rbx, %rcx                                    #219.44
        cmpq      $15, %rbx                                     #221.15
        ja        ..B12.5       # Prob 22%                      #221.15
                                # LOE rcx rbx rbp r12 r13 r14 r15
..B12.4:                        # Preds ..B12.3
                                # Execution count [7.77e-01]
        movq      (%r15), %rdi                                  #229.26
        jmp       ..B12.7       # Prob 100%                     #229.26
                                # LOE rcx rbx rbp rdi r12 r13 r14 r15
..B12.5:                        # Preds ..B12.3
                                # Execution count [2.19e-01]
        movq      %r15, %rdi                                    #223.14
        lea       (%rsp), %rsi                                  #223.14
        xorl      %edx, %edx                                    #223.14
..___tag_value__ZNSt7__cxx1112basic_stringIcSt11char_traitsIcESaIcEE12_M_constructIPcEEvT_S7_St20forward_iterator_tag.328:
#       std::__cxx11::basic_string<char, std::char_traits<char>, std::allocator<char>>::_M_create(std::__cxx11::basic_string<char, std::char_traits<char>, std::allocator<char>> *, std::__cxx11::basic_string<char, std::char_traits<char>, std::allocator<char>>::size_type &, std::__cxx11::basic_string<char, std::char_traits<char>, std::allocator<char>>::size_type)
        call      _ZNSt7__cxx1112basic_stringIcSt11char_traitsIcESaIcEE9_M_createERmm #223.14
..___tag_value__ZNSt7__cxx1112basic_stringIcSt11char_traitsIcESaIcEE12_M_constructIPcEEvT_S7_St20forward_iterator_tag.329:
                                # LOE rax rbx rbp r12 r13 r14 r15
..B12.16:                       # Preds ..B12.5
                                # Execution count [2.19e-01]
        movq      %rax, %rdi                                    #223.14
                                # LOE rbx rbp rdi r12 r13 r14 r15
..B12.6:                        # Preds ..B12.16
                                # Execution count [2.19e-01]
        movq      (%rsp), %rcx                                  #224.18
        movq      %rdi, (%r15)                                  #223.6
        movq      %rcx, 16(%r15)                                #224.6
                                # LOE rcx rbx rbp rdi r12 r13 r14 r15
..B12.7:                        # Preds ..B12.6 ..B12.4
                                # Execution count [9.96e-01]
        cmpq      $1, %rbx                                      #229.12
        jne       ..B12.9       # Prob 50%                      #229.12
                                # LOE rcx rbx rbp rdi r12 r13 r14 r15
..B12.8:                        # Preds ..B12.7
                                # Execution count [4.98e-01]
        movb      (%r14), %al                                   #229.12
        movb      %al, (%rdi)                                   #229.12
        movq      (%r15), %rdi                                  #236.2
        jmp       ..B12.12      # Prob 100%                     #236.2
                                # LOE rcx rbp rdi r12 r13 r15
..B12.9:                        # Preds ..B12.7
                                # Execution count [4.98e-01]
        testq     %rbx, %rbx                                    #229.12
        je        ..B12.12      # Prob 78%                      #229.12
                                # LOE rcx rbx rbp rdi r12 r13 r14 r15
..B12.10:                       # Preds ..B12.9
                                # Execution count [1.10e-01]
        movq      %r14, %rsi                                    #229.12
        movq      %rbx, %rdx                                    #229.12
        call      __intel_avx_rep_memcpy                        #229.12
                                # LOE rbp r12 r13 r15
..B12.11:                       # Preds ..B12.10
                                # Execution count [1.10e-01]
        movq      (%rsp), %rcx                                  #236.16
        movq      (%r15), %rdi                                  #236.2
                                # LOE rcx rbp rdi r12 r13 r15
..B12.12:                       # Preds ..B12.8 ..B12.11 ..B12.9
                                # Execution count [9.96e-01]
        movq      %rcx, 8(%r15)                                 #236.2
        movb      $0, (%rdi,%rcx)                               #236.2
        addq      $16, %rsp                                     #237.7
	.cfi_def_cfa_offset 32
	.cfi_restore 3
        popq      %rbx                                          #237.7
	.cfi_def_cfa_offset 24
	.cfi_restore 15
        popq      %r15                                          #237.7
	.cfi_def_cfa_offset 16
	.cfi_restore 14
        popq      %r14                                          #237.7
	.cfi_def_cfa_offset 8
        ret                                                     #237.7
	.cfi_def_cfa_offset 48
	.cfi_offset 3, -32
	.cfi_offset 14, -16
	.cfi_offset 15, -24
                                # LOE
..B12.13:                       # Preds ..B12.2
                                # Execution count [3.90e-03]: Infreq
        movl      $.L_2__STRING.51, %edi                        #216.4
..___tag_value__ZNSt7__cxx1112basic_stringIcSt11char_traitsIcESaIcEE12_M_constructIPcEEvT_S7_St20forward_iterator_tag.341:
#       std::__throw_logic_error(const char *)
        call      _ZSt19__throw_logic_errorPKc                  #216.4
..___tag_value__ZNSt7__cxx1112basic_stringIcSt11char_traitsIcESaIcEE12_M_constructIPcEEvT_S7_St20forward_iterator_tag.342:
        .align    16,0x90
                                # LOE
	.cfi_endproc
# mark_end;
	.type	_ZNSt7__cxx1112basic_stringIcSt11char_traitsIcESaIcEE12_M_constructIPcEEvT_S7_St20forward_iterator_tag,@function
	.size	_ZNSt7__cxx1112basic_stringIcSt11char_traitsIcESaIcEE12_M_constructIPcEEvT_S7_St20forward_iterator_tag,.-_ZNSt7__cxx1112basic_stringIcSt11char_traitsIcESaIcEE12_M_constructIPcEEvT_S7_St20forward_iterator_tag
	.data
# -- End  _ZNSt7__cxx1112basic_stringIcSt11char_traitsIcESaIcEE12_M_constructIPcEEvT_S7_St20forward_iterator_tag
	.section .text._ZNSt7__cxx1112basic_stringIcSt11char_traitsIcESaIcEE12_M_constructIPKcEEvT_S8_St20forward_iterator_tag, "xaG",@progbits,_ZNSt7__cxx1112basic_stringIcSt11char_traitsIcESaIcEE12_M_constructIPKcEEvT_S8_St20forward_iterator_tag,comdat
..TXTST12:
# -- Begin  _ZNSt7__cxx1112basic_stringIcSt11char_traitsIcESaIcEE12_M_constructIPKcEEvT_S8_St20forward_iterator_tag
	.section .text._ZNSt7__cxx1112basic_stringIcSt11char_traitsIcESaIcEE12_M_constructIPKcEEvT_S8_St20forward_iterator_tag, "xaG",@progbits,_ZNSt7__cxx1112basic_stringIcSt11char_traitsIcESaIcEE12_M_constructIPKcEEvT_S8_St20forward_iterator_tag,comdat
# mark_begin;
       .align    16,0x90
	.weak _ZNSt7__cxx1112basic_stringIcSt11char_traitsIcESaIcEE12_M_constructIPKcEEvT_S8_St20forward_iterator_tag
# --- std::__cxx11::basic_string<char, std::char_traits<char>, std::allocator<char>>::_M_construct<const char *>(std::__cxx11::basic_string<char, std::char_traits<char>, std::allocator<char>> *, const char *, const char *, std::forward_iterator_tag)
_ZNSt7__cxx1112basic_stringIcSt11char_traitsIcESaIcEE12_M_constructIPKcEEvT_S8_St20forward_iterator_tag:
# parameter 1: %rdi
# parameter 2: %rsi
# parameter 3: %rdx
# parameter 4: 48 + %rsp
..B13.1:                        # Preds ..B13.0
                                # Execution count [1.00e+00]
	.cfi_startproc
	.cfi_personality 0x3,__gxx_personality_v0
..___tag_value__ZNSt7__cxx1112basic_stringIcSt11char_traitsIcESaIcEE12_M_constructIPKcEEvT_S8_St20forward_iterator_tag.344:
..L345:
                                                        #213.7
        pushq     %r14                                          #213.7
	.cfi_def_cfa_offset 16
	.cfi_offset 14, -16
        pushq     %r15                                          #213.7
	.cfi_def_cfa_offset 24
	.cfi_offset 15, -24
        pushq     %rbx                                          #213.7
	.cfi_def_cfa_offset 32
	.cfi_offset 3, -32
        subq      $16, %rsp                                     #213.7
	.cfi_def_cfa_offset 48
        movq      %rsi, %r14                                    #213.7
        movq      %rdx, %rbx                                    #213.7
        movq      %rdi, %r15                                    #213.7
        testq     %r14, %r14                                    #215.6
        jne       ..B13.3       # Prob 22%                      #215.6
                                # LOE rbx rbp r12 r13 r14 r15
..B13.2:                        # Preds ..B13.1
                                # Execution count [7.80e-01]
        testq     %rbx, %rbx                                    #215.54
        jne       ..B13.13      # Prob 0%                       #215.54
                                # LOE rbx rbp r12 r13 r14 r15
..B13.3:                        # Preds ..B13.2 ..B13.1
                                # Execution count [9.96e-01]
        subq      %r14, %rbx                                    #219.65
        movq      %rbx, (%rsp)                                  #219.19
        movq      %rbx, %rcx                                    #219.44
        cmpq      $15, %rbx                                     #221.15
        ja        ..B13.5       # Prob 22%                      #221.15
                                # LOE rcx rbx rbp r12 r13 r14 r15
..B13.4:                        # Preds ..B13.3
                                # Execution count [7.77e-01]
        movq      (%r15), %rdi                                  #229.26
        jmp       ..B13.7       # Prob 100%                     #229.26
                                # LOE rcx rbx rbp rdi r12 r13 r14 r15
..B13.5:                        # Preds ..B13.3
                                # Execution count [2.19e-01]
        movq      %r15, %rdi                                    #223.14
        lea       (%rsp), %rsi                                  #223.14
        xorl      %edx, %edx                                    #223.14
..___tag_value__ZNSt7__cxx1112basic_stringIcSt11char_traitsIcESaIcEE12_M_constructIPKcEEvT_S8_St20forward_iterator_tag.353:
#       std::__cxx11::basic_string<char, std::char_traits<char>, std::allocator<char>>::_M_create(std::__cxx11::basic_string<char, std::char_traits<char>, std::allocator<char>> *, std::__cxx11::basic_string<char, std::char_traits<char>, std::allocator<char>>::size_type &, std::__cxx11::basic_string<char, std::char_traits<char>, std::allocator<char>>::size_type)
        call      _ZNSt7__cxx1112basic_stringIcSt11char_traitsIcESaIcEE9_M_createERmm #223.14
..___tag_value__ZNSt7__cxx1112basic_stringIcSt11char_traitsIcESaIcEE12_M_constructIPKcEEvT_S8_St20forward_iterator_tag.354:
                                # LOE rax rbx rbp r12 r13 r14 r15
..B13.16:                       # Preds ..B13.5
                                # Execution count [2.19e-01]
        movq      %rax, %rdi                                    #223.14
                                # LOE rbx rbp rdi r12 r13 r14 r15
..B13.6:                        # Preds ..B13.16
                                # Execution count [2.19e-01]
        movq      (%rsp), %rcx                                  #224.18
        movq      %rdi, (%r15)                                  #223.6
        movq      %rcx, 16(%r15)                                #224.6
                                # LOE rcx rbx rbp rdi r12 r13 r14 r15
..B13.7:                        # Preds ..B13.6 ..B13.4
                                # Execution count [9.96e-01]
        cmpq      $1, %rbx                                      #229.12
        jne       ..B13.9       # Prob 50%                      #229.12
                                # LOE rcx rbx rbp rdi r12 r13 r14 r15
..B13.8:                        # Preds ..B13.7
                                # Execution count [4.98e-01]
        movb      (%r14), %al                                   #229.12
        movb      %al, (%rdi)                                   #229.12
        movq      (%r15), %rdi                                  #236.2
        jmp       ..B13.12      # Prob 100%                     #236.2
                                # LOE rcx rbp rdi r12 r13 r15
..B13.9:                        # Preds ..B13.7
                                # Execution count [4.98e-01]
        testq     %rbx, %rbx                                    #229.12
        je        ..B13.12      # Prob 78%                      #229.12
                                # LOE rcx rbx rbp rdi r12 r13 r14 r15
..B13.10:                       # Preds ..B13.9
                                # Execution count [1.10e-01]
        movq      %r14, %rsi                                    #229.12
        movq      %rbx, %rdx                                    #229.12
        call      __intel_avx_rep_memcpy                        #229.12
                                # LOE rbp r12 r13 r15
..B13.11:                       # Preds ..B13.10
                                # Execution count [1.10e-01]
        movq      (%rsp), %rcx                                  #236.16
        movq      (%r15), %rdi                                  #236.2
                                # LOE rcx rbp rdi r12 r13 r15
..B13.12:                       # Preds ..B13.8 ..B13.11 ..B13.9
                                # Execution count [9.96e-01]
        movq      %rcx, 8(%r15)                                 #236.2
        movb      $0, (%rdi,%rcx)                               #236.2
        addq      $16, %rsp                                     #237.7
	.cfi_def_cfa_offset 32
	.cfi_restore 3
        popq      %rbx                                          #237.7
	.cfi_def_cfa_offset 24
	.cfi_restore 15
        popq      %r15                                          #237.7
	.cfi_def_cfa_offset 16
	.cfi_restore 14
        popq      %r14                                          #237.7
	.cfi_def_cfa_offset 8
        ret                                                     #237.7
	.cfi_def_cfa_offset 48
	.cfi_offset 3, -32
	.cfi_offset 14, -16
	.cfi_offset 15, -24
                                # LOE
..B13.13:                       # Preds ..B13.2
                                # Execution count [3.90e-03]: Infreq
        movl      $.L_2__STRING.51, %edi                        #216.4
..___tag_value__ZNSt7__cxx1112basic_stringIcSt11char_traitsIcESaIcEE12_M_constructIPKcEEvT_S8_St20forward_iterator_tag.366:
#       std::__throw_logic_error(const char *)
        call      _ZSt19__throw_logic_errorPKc                  #216.4
..___tag_value__ZNSt7__cxx1112basic_stringIcSt11char_traitsIcESaIcEE12_M_constructIPKcEEvT_S8_St20forward_iterator_tag.367:
        .align    16,0x90
                                # LOE
	.cfi_endproc
# mark_end;
	.type	_ZNSt7__cxx1112basic_stringIcSt11char_traitsIcESaIcEE12_M_constructIPKcEEvT_S8_St20forward_iterator_tag,@function
	.size	_ZNSt7__cxx1112basic_stringIcSt11char_traitsIcESaIcEE12_M_constructIPKcEEvT_S8_St20forward_iterator_tag,.-_ZNSt7__cxx1112basic_stringIcSt11char_traitsIcESaIcEE12_M_constructIPKcEEvT_S8_St20forward_iterator_tag
	.data
# -- End  _ZNSt7__cxx1112basic_stringIcSt11char_traitsIcESaIcEE12_M_constructIPKcEEvT_S8_St20forward_iterator_tag
	.section .text._ZN14ValueParameterIiEC1ENSt7__cxx1112basic_stringIcSt11char_traitsIcESaIcEEEi, "xaG",@progbits,_ZN14ValueParameterIiEC1ENSt7__cxx1112basic_stringIcSt11char_traitsIcESaIcEEEi,comdat
..TXTST13:
# -- Begin  _ZN14ValueParameterIiEC1ENSt7__cxx1112basic_stringIcSt11char_traitsIcESaIcEEEi
	.section .text._ZN14ValueParameterIiEC1ENSt7__cxx1112basic_stringIcSt11char_traitsIcESaIcEEEi, "xaG",@progbits,_ZN14ValueParameterIiEC1ENSt7__cxx1112basic_stringIcSt11char_traitsIcESaIcEEEi,comdat
# mark_begin;
       .align    16,0x90
	.weak _ZN14ValueParameterIiEC1ENSt7__cxx1112basic_stringIcSt11char_traitsIcESaIcEEEi
# --- ValueParameter<int>::ValueParameter(ValueParameter<int> *, std::__cxx11::string *, int)
_ZN14ValueParameterIiEC1ENSt7__cxx1112basic_stringIcSt11char_traitsIcESaIcEEEi:
# parameter 1: %rdi
# parameter 2: %rsi
# parameter 3: %edx
..B14.1:                        # Preds ..B14.0
                                # Execution count [1.00e+00]
	.cfi_startproc
	.cfi_personality 0x3,__gxx_personality_v0
	.cfi_lsda 0xb, _ZN14ValueParameterIiEC1ENSt7__cxx1112basic_stringIcSt11char_traitsIcESaIcEEEi$$LSDA
..___tag_value__ZN14ValueParameterIiEC1ENSt7__cxx1112basic_stringIcSt11char_traitsIcESaIcEEEi.369:
..L370:
                                                        #34.5
        pushq     %r12                                          #34.5
	.cfi_def_cfa_offset 16
	.cfi_offset 12, -16
        pushq     %rbx                                          #34.5
	.cfi_def_cfa_offset 24
	.cfi_offset 3, -24
        pushq     %rbp                                          #34.5
	.cfi_def_cfa_offset 32
	.cfi_offset 6, -32
        subq      $16, %rsp                                     #34.5
	.cfi_def_cfa_offset 48
        lea       16(%rdi), %r12                                #31.5
        movq      $_ZTV14ValueParameterIiE+16, (%rdi)           #31.5
        movl      %edx, 8(%rdi)                                 #32.15
        addq      $32, %rdi                                     #33.14
        movq      %rdi, (%r12)                                  #33.14
        movq      (%rsi), %rbp                                  #33.14
        movq      8(%rsi), %rbx                                 #33.14
        lea       (%rbp,%rbx), %rax                             #33.14
        testq     %rbp, %rbp                                    #33.14
        jne       ..B14.3       # Prob 22%                      #33.14
                                # LOE rax rbx rbp r12 r13 r14 r15
..B14.2:                        # Preds ..B14.1
                                # Execution count [7.80e-01]
        testq     %rax, %rax                                    #33.14
        jne       ..B14.13      # Prob 0%                       #33.14
                                # LOE rbx rbp r12 r13 r14 r15
..B14.3:                        # Preds ..B14.2 ..B14.1
                                # Execution count [9.96e-01]
        movq      %rbx, %rcx                                    #33.14
        movq      %rcx, (%rsp)                                  #33.14
        cmpq      $15, %rcx                                     #33.14
        ja        ..B14.5       # Prob 22%                      #33.14
                                # LOE rcx rbx rbp r12 r13 r14 r15
..B14.4:                        # Preds ..B14.3
                                # Execution count [7.77e-01]
        movq      (%r12), %rdi                                  #33.14
        jmp       ..B14.7       # Prob 100%                     #33.14
                                # LOE rcx rbx rbp rdi r12 r13 r14 r15
..B14.5:                        # Preds ..B14.3
                                # Execution count [2.19e-01]
        movq      %r12, %rdi                                    #33.14
        lea       (%rsp), %rsi                                  #33.14
        xorl      %edx, %edx                                    #33.14
..___tag_value__ZN14ValueParameterIiEC1ENSt7__cxx1112basic_stringIcSt11char_traitsIcESaIcEEEi.378:
#       std::__cxx11::basic_string<char, std::char_traits<char>, std::allocator<char>>::_M_create(std::__cxx11::basic_string<char, std::char_traits<char>, std::allocator<char>> *, std::__cxx11::basic_string<char, std::char_traits<char>, std::allocator<char>>::size_type &, std::__cxx11::basic_string<char, std::char_traits<char>, std::allocator<char>>::size_type)
        call      _ZNSt7__cxx1112basic_stringIcSt11char_traitsIcESaIcEE9_M_createERmm #33.14
..___tag_value__ZN14ValueParameterIiEC1ENSt7__cxx1112basic_stringIcSt11char_traitsIcESaIcEEEi.379:
                                # LOE rax rbx rbp r12 r13 r14 r15
..B14.16:                       # Preds ..B14.5
                                # Execution count [2.19e-01]
        movq      %rax, %rdi                                    #33.14
                                # LOE rbx rbp rdi r12 r13 r14 r15
..B14.6:                        # Preds ..B14.16
                                # Execution count [2.19e-01]
        movq      (%rsp), %rcx                                  #33.14
        movq      %rdi, (%r12)                                  #33.14
        movq      %rcx, 16(%r12)                                #33.14
                                # LOE rcx rbx rbp rdi r12 r13 r14 r15
..B14.7:                        # Preds ..B14.6 ..B14.4
                                # Execution count [9.96e-01]
        cmpq      $1, %rbx                                      #33.14
        jne       ..B14.9       # Prob 50%                      #33.14
                                # LOE rcx rbx rbp rdi r12 r13 r14 r15
..B14.8:                        # Preds ..B14.7
                                # Execution count [4.98e-01]
        movb      (%rbp), %al                                   #33.14
        movb      %al, (%rdi)                                   #33.14
        movq      (%r12), %rdi                                  #33.14
        jmp       ..B14.12      # Prob 100%                     #33.14
                                # LOE rcx rdi r12 r13 r14 r15
..B14.9:                        # Preds ..B14.7
                                # Execution count [4.98e-01]
        testq     %rbx, %rbx                                    #33.14
        je        ..B14.12      # Prob 78%                      #33.14
                                # LOE rcx rbx rbp rdi r12 r13 r14 r15
..B14.10:                       # Preds ..B14.9
                                # Execution count [1.10e-01]
        movq      %rbp, %rsi                                    #33.14
        movq      %rbx, %rdx                                    #33.14
        call      __intel_avx_rep_memcpy                        #33.14
                                # LOE r12 r13 r14 r15
..B14.11:                       # Preds ..B14.10
                                # Execution count [1.10e-01]
        movq      (%rsp), %rcx                                  #33.14
        movq      (%r12), %rdi                                  #33.14
                                # LOE rcx rdi r12 r13 r14 r15
..B14.12:                       # Preds ..B14.8 ..B14.11 ..B14.9
                                # Execution count [9.96e-01]
        movq      %rcx, 8(%r12)                                 #33.14
        movb      $0, (%rdi,%rcx)                               #33.14
        addq      $16, %rsp                                     #34.6
	.cfi_def_cfa_offset 32
	.cfi_restore 6
        popq      %rbp                                          #34.6
	.cfi_def_cfa_offset 24
	.cfi_restore 3
        popq      %rbx                                          #34.6
	.cfi_def_cfa_offset 16
	.cfi_restore 12
        popq      %r12                                          #34.6
	.cfi_def_cfa_offset 8
        ret                                                     #34.6
	.cfi_def_cfa_offset 48
	.cfi_offset 3, -24
	.cfi_offset 6, -32
	.cfi_offset 12, -16
                                # LOE
..B14.13:                       # Preds ..B14.2
                                # Execution count [3.90e-03]: Infreq
        movl      $.L_2__STRING.51, %edi                        #33.14
..___tag_value__ZN14ValueParameterIiEC1ENSt7__cxx1112basic_stringIcSt11char_traitsIcESaIcEEEi.391:
#       std::__throw_logic_error(const char *)
        call      _ZSt19__throw_logic_errorPKc                  #33.14
..___tag_value__ZN14ValueParameterIiEC1ENSt7__cxx1112basic_stringIcSt11char_traitsIcESaIcEEEi.392:
        .align    16,0x90
                                # LOE
	.cfi_endproc
# mark_end;
	.type	_ZN14ValueParameterIiEC1ENSt7__cxx1112basic_stringIcSt11char_traitsIcESaIcEEEi,@function
	.size	_ZN14ValueParameterIiEC1ENSt7__cxx1112basic_stringIcSt11char_traitsIcESaIcEEEi,.-_ZN14ValueParameterIiEC1ENSt7__cxx1112basic_stringIcSt11char_traitsIcESaIcEEEi
	.section .gcc_except_table, "a"
	.align 4
_ZN14ValueParameterIiEC1ENSt7__cxx1112basic_stringIcSt11char_traitsIcESaIcEEEi$$LSDA:
	.byte	255
	.byte	0
	.uleb128	..___tag_value__ZN14ValueParameterIiEC1ENSt7__cxx1112basic_stringIcSt11char_traitsIcESaIcEEEi.397 - ..___tag_value__ZN14ValueParameterIiEC1ENSt7__cxx1112basic_stringIcSt11char_traitsIcESaIcEEEi.396
..___tag_value__ZN14ValueParameterIiEC1ENSt7__cxx1112basic_stringIcSt11char_traitsIcESaIcEEEi.396:
	.byte	1
	.uleb128	..___tag_value__ZN14ValueParameterIiEC1ENSt7__cxx1112basic_stringIcSt11char_traitsIcESaIcEEEi.395 - ..___tag_value__ZN14ValueParameterIiEC1ENSt7__cxx1112basic_stringIcSt11char_traitsIcESaIcEEEi.394
..___tag_value__ZN14ValueParameterIiEC1ENSt7__cxx1112basic_stringIcSt11char_traitsIcESaIcEEEi.394:
	.uleb128	..___tag_value__ZN14ValueParameterIiEC1ENSt7__cxx1112basic_stringIcSt11char_traitsIcESaIcEEEi.378 - ..___tag_value__ZN14ValueParameterIiEC1ENSt7__cxx1112basic_stringIcSt11char_traitsIcESaIcEEEi.369
	.uleb128	..___tag_value__ZN14ValueParameterIiEC1ENSt7__cxx1112basic_stringIcSt11char_traitsIcESaIcEEEi.392 - ..___tag_value__ZN14ValueParameterIiEC1ENSt7__cxx1112basic_stringIcSt11char_traitsIcESaIcEEEi.378
	.byte	0
	.byte	0
..___tag_value__ZN14ValueParameterIiEC1ENSt7__cxx1112basic_stringIcSt11char_traitsIcESaIcEEEi.395:
	.byte	127
	.byte	0
	.long	0x00000000,0x00000000
..___tag_value__ZN14ValueParameterIiEC1ENSt7__cxx1112basic_stringIcSt11char_traitsIcESaIcEEEi.397:
	.byte	0
	.data
# -- End  _ZN14ValueParameterIiEC1ENSt7__cxx1112basic_stringIcSt11char_traitsIcESaIcEEEi
	.section .text._ZN12TestCategoryC1ENSt7__cxx1112basic_stringIcSt11char_traitsIcESaIcEEE, "xaG",@progbits,_ZN12TestCategoryC1ENSt7__cxx1112basic_stringIcSt11char_traitsIcESaIcEEE,comdat
..TXTST14:
# -- Begin  _ZN12TestCategoryC1ENSt7__cxx1112basic_stringIcSt11char_traitsIcESaIcEEE
	.section .text._ZN12TestCategoryC1ENSt7__cxx1112basic_stringIcSt11char_traitsIcESaIcEEE, "xaG",@progbits,_ZN12TestCategoryC1ENSt7__cxx1112basic_stringIcSt11char_traitsIcESaIcEEE,comdat
# mark_begin;
       .align    16,0x90
	.weak _ZN12TestCategoryC1ENSt7__cxx1112basic_stringIcSt11char_traitsIcESaIcEEE
# --- TestCategory::TestCategory(TestCategory *, std::__cxx11::string *)
_ZN12TestCategoryC1ENSt7__cxx1112basic_stringIcSt11char_traitsIcESaIcEEE:
# parameter 1: %rdi
# parameter 2: %rsi
..B15.1:                        # Preds ..B15.0
                                # Execution count [1.00e+00]
	.cfi_startproc
	.cfi_personality 0x3,__gxx_personality_v0
	.cfi_lsda 0xb, _ZN12TestCategoryC1ENSt7__cxx1112basic_stringIcSt11char_traitsIcESaIcEEE$$LSDA
..___tag_value__ZN12TestCategoryC1ENSt7__cxx1112basic_stringIcSt11char_traitsIcESaIcEEE.398:
..L399:
                                                        #80.73
        pushq     %r12                                          #80.73
	.cfi_def_cfa_offset 16
	.cfi_offset 12, -16
        pushq     %r15                                          #80.73
	.cfi_def_cfa_offset 24
	.cfi_offset 15, -24
        pushq     %rbx                                          #80.73
	.cfi_def_cfa_offset 32
	.cfi_offset 3, -32
        pushq     %rbp                                          #80.73
	.cfi_def_cfa_offset 40
	.cfi_offset 6, -40
        pushq     %rsi                                          #80.73
	.cfi_def_cfa_offset 48
        movq      %rdi, %r15                                    #80.73
        movq      8(%rsi), %rbx                                 #80.43
        movl      $-1, (%r15)                                   #80.5
        lea       8(%r15), %r12                                 #80.5
        lea       24(%r15), %rax                                #80.43
        movq      %rax, (%r12)                                  #80.43
        movq      (%rsi), %rbp                                  #80.43
        lea       (%rbp,%rbx), %rax                             #80.43
        testq     %rbp, %rbp                                    #80.43
        jne       ..B15.3       # Prob 22%                      #80.43
                                # LOE rax rbx rbp r12 r13 r14 r15
..B15.2:                        # Preds ..B15.1
                                # Execution count [7.80e-01]
        testq     %rax, %rax                                    #80.43
        jne       ..B15.15      # Prob 0%                       #80.43
                                # LOE rbx rbp r12 r13 r14 r15
..B15.3:                        # Preds ..B15.1 ..B15.2
                                # Execution count [9.96e-01]
        movq      %rbx, %rcx                                    #80.43
        movq      %rcx, (%rsp)                                  #80.43
        cmpq      $15, %rcx                                     #80.43
        ja        ..B15.5       # Prob 22%                      #80.43
                                # LOE rcx rbx rbp r12 r13 r14 r15
..B15.4:                        # Preds ..B15.3
                                # Execution count [7.77e-01]
        movq      (%r12), %rdi                                  #80.43
        jmp       ..B15.7       # Prob 100%                     #80.43
                                # LOE rcx rbx rbp rdi r12 r13 r14 r15
..B15.5:                        # Preds ..B15.3
                                # Execution count [2.19e-01]
        movq      %r12, %rdi                                    #80.43
        lea       (%rsp), %rsi                                  #80.43
        xorl      %edx, %edx                                    #80.43
..___tag_value__ZN12TestCategoryC1ENSt7__cxx1112basic_stringIcSt11char_traitsIcESaIcEEE.409:
#       std::__cxx11::basic_string<char, std::char_traits<char>, std::allocator<char>>::_M_create(std::__cxx11::basic_string<char, std::char_traits<char>, std::allocator<char>> *, std::__cxx11::basic_string<char, std::char_traits<char>, std::allocator<char>>::size_type &, std::__cxx11::basic_string<char, std::char_traits<char>, std::allocator<char>>::size_type)
        call      _ZNSt7__cxx1112basic_stringIcSt11char_traitsIcESaIcEE9_M_createERmm #80.43
..___tag_value__ZN12TestCategoryC1ENSt7__cxx1112basic_stringIcSt11char_traitsIcESaIcEEE.410:
                                # LOE rax rbx rbp r12 r13 r14 r15
..B15.18:                       # Preds ..B15.5
                                # Execution count [2.19e-01]
        movq      %rax, %rdi                                    #80.43
                                # LOE rbx rbp rdi r12 r13 r14 r15
..B15.6:                        # Preds ..B15.18
                                # Execution count [2.19e-01]
        movq      (%rsp), %rcx                                  #80.43
        movq      %rdi, (%r12)                                  #80.43
        movq      %rcx, 16(%r12)                                #80.43
                                # LOE rcx rbx rbp rdi r12 r13 r14 r15
..B15.7:                        # Preds ..B15.6 ..B15.4
                                # Execution count [9.96e-01]
        cmpq      $1, %rbx                                      #80.43
        jne       ..B15.9       # Prob 50%                      #80.43
                                # LOE rcx rbx rbp rdi r12 r13 r14 r15
..B15.8:                        # Preds ..B15.7
                                # Execution count [4.98e-01]
        movb      (%rbp), %al                                   #80.43
        movb      %al, (%rdi)                                   #80.43
        movq      (%r12), %rdi                                  #80.43
        jmp       ..B15.12      # Prob 100%                     #80.43
                                # LOE rcx rdi r12 r13 r14 r15
..B15.9:                        # Preds ..B15.7
                                # Execution count [4.98e-01]
        testq     %rbx, %rbx                                    #80.43
        je        ..B15.12      # Prob 78%                      #80.43
                                # LOE rcx rbx rbp rdi r12 r13 r14 r15
..B15.10:                       # Preds ..B15.9
                                # Execution count [1.10e-01]
        movq      %rbp, %rsi                                    #80.43
        movq      %rbx, %rdx                                    #80.43
        call      __intel_avx_rep_memcpy                        #80.43
                                # LOE r12 r13 r14 r15
..B15.11:                       # Preds ..B15.10
                                # Execution count [1.10e-01]
        movq      (%rsp), %rcx                                  #80.43
        movq      (%r12), %rdi                                  #80.43
                                # LOE rcx rdi r12 r13 r14 r15
..B15.12:                       # Preds ..B15.8 ..B15.11 ..B15.9
                                # Execution count [1.00e+00]
        movq      %rcx, 8(%r12)                                 #80.43
        movb      $0, (%rdi,%rcx)                               #80.43
        lea       40(%r15), %rdi                                #80.5
..___tag_value__ZN12TestCategoryC1ENSt7__cxx1112basic_stringIcSt11char_traitsIcESaIcEEE.411:
#       std::__cxx11::list<Test *, std::allocator<Test *>>::list(std::__cxx11::list<Test *, std::allocator<Test *>> *)
        call      _ZNSt7__cxx114listIP4TestSaIS2_EEC1Ev         #80.5
..___tag_value__ZN12TestCategoryC1ENSt7__cxx1112basic_stringIcSt11char_traitsIcESaIcEEE.412:
                                # LOE r13 r14 r15
..B15.13:                       # Preds ..B15.12
                                # Execution count [1.00e+00]
        addq      $64, %r15                                     #80.5
        movq      %r15, %rdi                                    #80.5
..___tag_value__ZN12TestCategoryC1ENSt7__cxx1112basic_stringIcSt11char_traitsIcESaIcEEE.413:
#       std::__cxx11::list<TestParameter *, std::allocator<TestParameter *>>::list(std::__cxx11::list<TestParameter *, std::allocator<TestParameter *>> *)
        call      _ZNSt7__cxx114listIP13TestParameterSaIS2_EEC1Ev #80.5
..___tag_value__ZN12TestCategoryC1ENSt7__cxx1112basic_stringIcSt11char_traitsIcESaIcEEE.414:
                                # LOE r13 r14
..B15.14:                       # Preds ..B15.13
                                # Execution count [1.00e+00]
        popq      %rcx                                          #80.74
	.cfi_def_cfa_offset 40
	.cfi_restore 6
        popq      %rbp                                          #80.74
	.cfi_def_cfa_offset 32
	.cfi_restore 3
        popq      %rbx                                          #80.74
	.cfi_def_cfa_offset 24
	.cfi_restore 15
        popq      %r15                                          #80.74
	.cfi_def_cfa_offset 16
	.cfi_restore 12
        popq      %r12                                          #80.74
	.cfi_def_cfa_offset 8
        ret                                                     #80.74
	.cfi_def_cfa_offset 48
	.cfi_offset 3, -32
	.cfi_offset 6, -40
	.cfi_offset 12, -16
	.cfi_offset 15, -24
                                # LOE
..B15.15:                       # Preds ..B15.2
                                # Execution count [3.90e-03]: Infreq
        movl      $.L_2__STRING.51, %edi                        #80.43
..___tag_value__ZN12TestCategoryC1ENSt7__cxx1112basic_stringIcSt11char_traitsIcESaIcEEE.429:
#       std::__throw_logic_error(const char *)
        call      _ZSt19__throw_logic_errorPKc                  #80.43
..___tag_value__ZN12TestCategoryC1ENSt7__cxx1112basic_stringIcSt11char_traitsIcESaIcEEE.430:
        .align    16,0x90
                                # LOE
	.cfi_endproc
# mark_end;
	.type	_ZN12TestCategoryC1ENSt7__cxx1112basic_stringIcSt11char_traitsIcESaIcEEE,@function
	.size	_ZN12TestCategoryC1ENSt7__cxx1112basic_stringIcSt11char_traitsIcESaIcEEE,.-_ZN12TestCategoryC1ENSt7__cxx1112basic_stringIcSt11char_traitsIcESaIcEEE
	.section .gcc_except_table, "a"
	.align 4
_ZN12TestCategoryC1ENSt7__cxx1112basic_stringIcSt11char_traitsIcESaIcEEE$$LSDA:
	.byte	255
	.byte	0
	.uleb128	..___tag_value__ZN12TestCategoryC1ENSt7__cxx1112basic_stringIcSt11char_traitsIcESaIcEEE.435 - ..___tag_value__ZN12TestCategoryC1ENSt7__cxx1112basic_stringIcSt11char_traitsIcESaIcEEE.434
..___tag_value__ZN12TestCategoryC1ENSt7__cxx1112basic_stringIcSt11char_traitsIcESaIcEEE.434:
	.byte	1
	.uleb128	..___tag_value__ZN12TestCategoryC1ENSt7__cxx1112basic_stringIcSt11char_traitsIcESaIcEEE.433 - ..___tag_value__ZN12TestCategoryC1ENSt7__cxx1112basic_stringIcSt11char_traitsIcESaIcEEE.432
..___tag_value__ZN12TestCategoryC1ENSt7__cxx1112basic_stringIcSt11char_traitsIcESaIcEEE.432:
	.uleb128	..___tag_value__ZN12TestCategoryC1ENSt7__cxx1112basic_stringIcSt11char_traitsIcESaIcEEE.409 - ..___tag_value__ZN12TestCategoryC1ENSt7__cxx1112basic_stringIcSt11char_traitsIcESaIcEEE.398
	.uleb128	..___tag_value__ZN12TestCategoryC1ENSt7__cxx1112basic_stringIcSt11char_traitsIcESaIcEEE.430 - ..___tag_value__ZN12TestCategoryC1ENSt7__cxx1112basic_stringIcSt11char_traitsIcESaIcEEE.409
	.byte	0
	.byte	0
..___tag_value__ZN12TestCategoryC1ENSt7__cxx1112basic_stringIcSt11char_traitsIcESaIcEEE.433:
	.byte	127
	.byte	0
	.long	0x00000000,0x00000000
..___tag_value__ZN12TestCategoryC1ENSt7__cxx1112basic_stringIcSt11char_traitsIcESaIcEEE.435:
	.byte	0
	.data
# -- End  _ZN12TestCategoryC1ENSt7__cxx1112basic_stringIcSt11char_traitsIcESaIcEEE
	.section .text._ZNSt7__cxx114listIP4TestSaIS2_EEC1Ev, "xaG",@progbits,_ZNSt7__cxx114listIP4TestSaIS2_EEC1Ev,comdat
..TXTST15:
# -- Begin  _ZNSt7__cxx114listIP4TestSaIS2_EEC1Ev
	.section .text._ZNSt7__cxx114listIP4TestSaIS2_EEC1Ev, "xaG",@progbits,_ZNSt7__cxx114listIP4TestSaIS2_EEC1Ev,comdat
# mark_begin;
       .align    16,0x90
	.weak _ZNSt7__cxx114listIP4TestSaIS2_EEC1Ev
# --- std::__cxx11::list<Test *, std::allocator<Test *>>::list(std::__cxx11::list<Test *, std::allocator<Test *>> *)
_ZNSt7__cxx114listIP4TestSaIS2_EEC1Ev:
# parameter 1: %rdi
..B16.1:                        # Preds ..B16.0
                                # Execution count [1.00e+00]
	.cfi_startproc
	.cfi_personality 0x3,__gxx_personality_v0
	.cfi_lsda 0xb, _ZNSt7__cxx114listIP4TestSaIS2_EEC1Ev$$LSDA
..___tag_value__ZNSt7__cxx114listIP4TestSaIS2_EEC1Ev.436:
..L437:
                                                        #597.17
        vpxor     %xmm0, %xmm0, %xmm0                           #593.7
        vmovups   %xmm0, (%rdi)                                 #593.7
                                # LOE rbx rbp rdi r12 r13 r14 r15
..B16.2:                        # Preds ..B16.1
                                # Execution count [1.00e+00]
        movq      %rdi, (%rdi)                                  #593.7
        movq      %rdi, 8(%rdi)                                 #593.7
        movq      $0, 16(%rdi)                                  #593.7
        ret                                                     #597.19
        .align    16,0x90
                                # LOE
	.cfi_endproc
# mark_end;
	.type	_ZNSt7__cxx114listIP4TestSaIS2_EEC1Ev,@function
	.size	_ZNSt7__cxx114listIP4TestSaIS2_EEC1Ev,.-_ZNSt7__cxx114listIP4TestSaIS2_EEC1Ev
	.section .gcc_except_table, "a"
	.align 4
_ZNSt7__cxx114listIP4TestSaIS2_EEC1Ev$$LSDA:
	.byte	255
	.byte	0
	.uleb128	..___tag_value__ZNSt7__cxx114listIP4TestSaIS2_EEC1Ev.442 - ..___tag_value__ZNSt7__cxx114listIP4TestSaIS2_EEC1Ev.441
..___tag_value__ZNSt7__cxx114listIP4TestSaIS2_EEC1Ev.441:
	.byte	1
	.uleb128	..___tag_value__ZNSt7__cxx114listIP4TestSaIS2_EEC1Ev.440 - ..___tag_value__ZNSt7__cxx114listIP4TestSaIS2_EEC1Ev.439
..___tag_value__ZNSt7__cxx114listIP4TestSaIS2_EEC1Ev.439:
..___tag_value__ZNSt7__cxx114listIP4TestSaIS2_EEC1Ev.440:
	.byte	127
	.byte	0
	.long	0x00000000,0x00000000
..___tag_value__ZNSt7__cxx114listIP4TestSaIS2_EEC1Ev.442:
	.byte	0
	.data
# -- End  _ZNSt7__cxx114listIP4TestSaIS2_EEC1Ev
	.section .text._ZNSt7__cxx114listIP13TestParameterSaIS2_EEC1Ev, "xaG",@progbits,_ZNSt7__cxx114listIP13TestParameterSaIS2_EEC1Ev,comdat
..TXTST16:
# -- Begin  _ZNSt7__cxx114listIP13TestParameterSaIS2_EEC1Ev
	.section .text._ZNSt7__cxx114listIP13TestParameterSaIS2_EEC1Ev, "xaG",@progbits,_ZNSt7__cxx114listIP13TestParameterSaIS2_EEC1Ev,comdat
# mark_begin;
       .align    16,0x90
	.weak _ZNSt7__cxx114listIP13TestParameterSaIS2_EEC1Ev
# --- std::__cxx11::list<TestParameter *, std::allocator<TestParameter *>>::list(std::__cxx11::list<TestParameter *, std::allocator<TestParameter *>> *)
_ZNSt7__cxx114listIP13TestParameterSaIS2_EEC1Ev:
# parameter 1: %rdi
..B17.1:                        # Preds ..B17.0
                                # Execution count [1.00e+00]
	.cfi_startproc
	.cfi_personality 0x3,__gxx_personality_v0
	.cfi_lsda 0xb, _ZNSt7__cxx114listIP13TestParameterSaIS2_EEC1Ev$$LSDA
..___tag_value__ZNSt7__cxx114listIP13TestParameterSaIS2_EEC1Ev.443:
..L444:
                                                        #597.17
        vpxor     %xmm0, %xmm0, %xmm0                           #593.7
        vmovups   %xmm0, (%rdi)                                 #593.7
                                # LOE rbx rbp rdi r12 r13 r14 r15
..B17.2:                        # Preds ..B17.1
                                # Execution count [1.00e+00]
        movq      %rdi, (%rdi)                                  #593.7
        movq      %rdi, 8(%rdi)                                 #593.7
        movq      $0, 16(%rdi)                                  #593.7
        ret                                                     #597.19
        .align    16,0x90
                                # LOE
	.cfi_endproc
# mark_end;
	.type	_ZNSt7__cxx114listIP13TestParameterSaIS2_EEC1Ev,@function
	.size	_ZNSt7__cxx114listIP13TestParameterSaIS2_EEC1Ev,.-_ZNSt7__cxx114listIP13TestParameterSaIS2_EEC1Ev
	.section .gcc_except_table, "a"
	.align 4
_ZNSt7__cxx114listIP13TestParameterSaIS2_EEC1Ev$$LSDA:
	.byte	255
	.byte	0
	.uleb128	..___tag_value__ZNSt7__cxx114listIP13TestParameterSaIS2_EEC1Ev.449 - ..___tag_value__ZNSt7__cxx114listIP13TestParameterSaIS2_EEC1Ev.448
..___tag_value__ZNSt7__cxx114listIP13TestParameterSaIS2_EEC1Ev.448:
	.byte	1
	.uleb128	..___tag_value__ZNSt7__cxx114listIP13TestParameterSaIS2_EEC1Ev.447 - ..___tag_value__ZNSt7__cxx114listIP13TestParameterSaIS2_EEC1Ev.446
..___tag_value__ZNSt7__cxx114listIP13TestParameterSaIS2_EEC1Ev.446:
..___tag_value__ZNSt7__cxx114listIP13TestParameterSaIS2_EEC1Ev.447:
	.byte	127
	.byte	0
	.long	0x00000000,0x00000000
..___tag_value__ZNSt7__cxx114listIP13TestParameterSaIS2_EEC1Ev.449:
	.byte	0
	.data
# -- End  _ZNSt7__cxx114listIP13TestParameterSaIS2_EEC1Ev
	.section .text._ZN16BenchmarkHarnessC1EiPPc, "xaG",@progbits,_ZN16BenchmarkHarnessC1EiPPc,comdat
..TXTST17:
# -- Begin  _ZN16BenchmarkHarnessC1EiPPc
	.section .text._ZN16BenchmarkHarnessC1EiPPc, "xaG",@progbits,_ZN16BenchmarkHarnessC1EiPPc,comdat
# mark_begin;
       .align    16,0x90
	.weak _ZN16BenchmarkHarnessC1EiPPc
# --- BenchmarkHarness::BenchmarkHarness(BenchmarkHarness *, int, char **)
_ZN16BenchmarkHarnessC1EiPPc:
# parameter 1: %rdi
# parameter 2: %esi
# parameter 3: %rdx
..B18.1:                        # Preds ..B18.0
                                # Execution count [1.00e+00]
	.cfi_startproc
	.cfi_personality 0x3,__gxx_personality_v0
	.cfi_lsda 0xb, _ZN16BenchmarkHarnessC1EiPPc$$LSDA
..___tag_value__ZN16BenchmarkHarnessC1EiPPc.482:
..L483:
                                                        #147.5
        pushq     %r12                                          #147.5
	.cfi_def_cfa_offset 16
	.cfi_offset 12, -16
        pushq     %r13                                          #147.5
	.cfi_def_cfa_offset 24
	.cfi_offset 13, -24
        pushq     %r14                                          #147.5
	.cfi_def_cfa_offset 32
	.cfi_offset 14, -32
        pushq     %r15                                          #147.5
	.cfi_def_cfa_offset 40
	.cfi_offset 15, -40
        pushq     %rbx                                          #147.5
	.cfi_def_cfa_offset 48
	.cfi_offset 3, -48
        pushq     %rbp                                          #147.5
	.cfi_def_cfa_offset 56
	.cfi_offset 6, -56
        subq      $1016, %rsp                                   #147.5
	.cfi_def_cfa_offset 1072
        movq      %rdi, %r14                                    #147.5
        xorl      %eax, %eax                                    #137.5
        movl      %esi, 8(%r14)                                 #138.15
        lea       48(%r14), %rcx                                #145.20
        movq      %rcx, 984(%rsp)                               #145.20[spill]
        addq      $-16, %rsp                                    #145.20
	.cfi_def_cfa_offset 1088
	.cfi_escape 0x2e, 0x10
        movq      %rsp, %r9                                     #145.20
        lea       32(%r14), %r13                                #137.5
        movl      $.L_2__STRING.0, %esi                         #145.20
        movq      %r13, %rdi                                    #145.20
        movq      %rdx, 16(%r14)                                #139.15
        movq      %rsi, %rdx                                    #145.20
        movb      16(%rsp), %r8b                                #145.20
        movb      %al, -24(%rcx)                                #137.5
        movb      %al, -23(%rcx)                                #137.5
        movb      %al, -22(%rcx)                                #137.5
        movb      %al, -21(%rcx)                                #137.5
        movb      %al, -20(%rcx)                                #137.5
        movq      %rcx, (%r13)                                  #145.20
        movb      %r8b, (%r9)                                   #145.20
..___tag_value__ZN16BenchmarkHarnessC1EiPPc.499:
#       std::__cxx11::basic_string<char, std::char_traits<char>, std::allocator<char>>::_M_construct<const char *>(std::__cxx11::basic_string<char, std::char_traits<char>, std::allocator<char>> *, const char *, const char *, std::forward_iterator_tag)
        call      _ZNSt7__cxx1112basic_stringIcSt11char_traitsIcESaIcEE12_M_constructIPKcEEvT_S8_St20forward_iterator_tag #145.20
..___tag_value__ZN16BenchmarkHarnessC1EiPPc.500:
                                # LOE r13 r14
..B18.2:                        # Preds ..B18.1
                                # Execution count [1.00e+00]
        addq      $16, %rsp                                     #145.20
	.cfi_def_cfa_offset 1072
	.cfi_escape 0x2e, 0x00
                                # LOE r13 r14
..B18.3:                        # Preds ..B18.2
                                # Execution count [1.00e+00]
        movq      $_ZSt4cout, 64(%r14)                          #137.5
        lea       72(%r14), %rdi                                #137.5
        movq      %rdi, 1000(%rsp)                              #137.5[spill]
..___tag_value__ZN16BenchmarkHarnessC1EiPPc.503:
#       std::__cxx11::list<Test *, std::allocator<Test *>>::list(std::__cxx11::list<Test *, std::allocator<Test *>> *)
        call      _ZNSt7__cxx114listIP4TestSaIS2_EEC1Ev         #137.5
..___tag_value__ZN16BenchmarkHarnessC1EiPPc.504:
                                # LOE r13 r14
..B18.4:                        # Preds ..B18.3
                                # Execution count [1.00e+00]
        lea       96(%r14), %rdi                                #137.5
        movq      %rdi, 992(%rsp)                               #137.5[spill]
..___tag_value__ZN16BenchmarkHarnessC1EiPPc.505:
#       std::__cxx11::list<TestCategory *, std::allocator<TestCategory *>>::list(std::__cxx11::list<TestCategory *, std::allocator<TestCategory *>> *)
        call      _ZNSt7__cxx114listIP12TestCategorySaIS2_EEC1Ev #137.5
..___tag_value__ZN16BenchmarkHarnessC1EiPPc.506:
                                # LOE r13 r14
..B18.5:                        # Preds ..B18.4
                                # Execution count [1.00e+00]
        movl      $224, %edi                                    #149.9
..___tag_value__ZN16BenchmarkHarnessC1EiPPc.507:
#       operator new(std::size_t)
        call      _Znwm                                         #149.9
..___tag_value__ZN16BenchmarkHarnessC1EiPPc.508:
                                # LOE rax r13 r14
..B18.6:                        # Preds ..B18.5
                                # Execution count [1.00e+00]
        movq      %rax, %r12                                    #149.9
                                # LOE r12 r13 r14
..B18.7:                        # Preds ..B18.6
                                # Execution count [1.00e+00]
        movl      $.L_2__STRING.1, %esi                         #149.34
        lea       800(%rsp), %rax                               #149.34
        movq      %rax, -16(%rax)                               #149.9
        addq      $-16, %rsp                                    #149.34
	.cfi_def_cfa_offset 1088
	.cfi_escape 0x2e, 0x10
        movq      %rsp, %rbx                                    #149.34
        lea       800(%rsp), %rdi                               #149.34
        movb      16(%rsp), %cl                                 #149.34
        movl      $.L_2__STRING.1+16, %edx                      #149.34
        movb      %cl, (%rbx)                                   #149.34
..___tag_value__ZN16BenchmarkHarnessC1EiPPc.511:
#       std::__cxx11::basic_string<char, std::char_traits<char>, std::allocator<char>>::_M_construct<const char *>(std::__cxx11::basic_string<char, std::char_traits<char>, std::allocator<char>> *, const char *, const char *, std::forward_iterator_tag)
        call      _ZNSt7__cxx1112basic_stringIcSt11char_traitsIcESaIcEE12_M_constructIPKcEEvT_S8_St20forward_iterator_tag #149.34
..___tag_value__ZN16BenchmarkHarnessC1EiPPc.512:
                                # LOE r12 r13 r14
..B18.8:                        # Preds ..B18.7
                                # Execution count [1.00e+00]
        addq      $16, %rsp                                     #149.34
	.cfi_def_cfa_offset 1072
	.cfi_escape 0x2e, 0x00
                                # LOE r12 r13 r14
..B18.9:                        # Preds ..B18.8
                                # Execution count [1.00e+00]
        movl      $.L_2__STRING.0, %esi                         #149.59
        lea       832(%rsp), %rax                               #149.59
        movq      %rax, -16(%rax)                               #149.54
        addq      $-16, %rsp                                    #149.59
	.cfi_def_cfa_offset 1088
	.cfi_escape 0x2e, 0x10
        movq      %rsp, %rbx                                    #149.59
        lea       832(%rsp), %rdi                               #149.59
        movb      16(%rsp), %cl                                 #149.59
        movq      %rsi, %rdx                                    #149.59
        movb      %cl, (%rbx)                                   #149.59
..___tag_value__ZN16BenchmarkHarnessC1EiPPc.517:
#       std::__cxx11::basic_string<char, std::char_traits<char>, std::allocator<char>>::_M_construct<const char *>(std::__cxx11::basic_string<char, std::char_traits<char>, std::allocator<char>> *, const char *, const char *, std::forward_iterator_tag)
        call      _ZNSt7__cxx1112basic_stringIcSt11char_traitsIcESaIcEE12_M_constructIPKcEEvT_S8_St20forward_iterator_tag #149.59
..___tag_value__ZN16BenchmarkHarnessC1EiPPc.518:
                                # LOE r12 r13 r14
..B18.10:                       # Preds ..B18.9
                                # Execution count [1.00e+00]
        addq      $16, %rsp                                     #149.59
	.cfi_def_cfa_offset 1072
	.cfi_escape 0x2e, 0x00
                                # LOE r12 r13 r14
..B18.11:                       # Preds ..B18.10
                                # Execution count [1.00e+00]
        movq      $_ZTVN5TCLAP7CmdLineE+16, (%r12)              #149.59
        lea       8(%r12), %rdi                                 #149.59
        movq      %rdi, 16(%rsp)                                #149.59[spill]
..___tag_value__ZN16BenchmarkHarnessC1EiPPc.521:
#       std::__cxx11::list<TCLAP::Arg *, std::allocator<TCLAP::Arg *>>::list(std::__cxx11::list<TCLAP::Arg *, std::allocator<TCLAP::Arg *>> *)
        call      _ZNSt7__cxx114listIPN5TCLAP3ArgESaIS3_EEC1Ev  #149.59
..___tag_value__ZN16BenchmarkHarnessC1EiPPc.522:
                                # LOE r12 r13 r14
..B18.12:                       # Preds ..B18.11
                                # Execution count [1.00e+00]
        movq      $11, 32(%rsp)                                 #149.59
        lea       48(%r12), %rbx                                #149.59
        movq      %rbx, 24(%rsp)                                #149.59[spill]
        movq      %rbx, -16(%rbx)                               #149.59
        movq      .L_2__STRING.109(%rip), %rax                  #149.59
        movq      %rax, (%rbx)                                  #149.59
        movzwl    8+.L_2__STRING.109(%rip), %edx                #149.59
        movw      %dx, 8(%rbx)                                  #149.59
        movb      10+.L_2__STRING.109(%rip), %cl                #149.59
        movb      %cl, 10(%rbx)                                 #149.59
                                # LOE r12 r13 r14
..B18.13:                       # Preds ..B18.12
                                # Execution count [1.10e-01]
        movq      32(%rsp), %rbx                                #149.59
        lea       80(%r12), %rax                                #149.59
        movq      -48(%rax), %rbp                               #149.59
        movq      %rbx, -40(%rax)                               #149.59
        movq      %rax, 8(%rsp)                                 #149.59[spill]
        movb      $0, (%rbp,%rbx)                               #149.59
        lea       64(%r12), %rbp                                #149.59
        movq      784(%rsp), %rcx                               #149.34
        movq      792(%rsp), %rbx                               #149.34
        movq      %rax, (%rbp)                                  #149.59
        movq      %rcx, (%rsp)                                  #149.34[spill]
        lea       (%rbx,%rcx), %rax                             #149.59
        testq     %rcx, %rcx                                    #149.59
        jne       ..B18.15      # Prob 22%                      #149.59
                                # LOE rax rbx rbp r12 r13 r14
..B18.14:                       # Preds ..B18.13
                                # Execution count [7.80e-01]
        testq     %rax, %rax                                    #149.59
        jne       ..B18.175     # Prob 0%                       #149.59
                                # LOE rbx rbp r12 r13 r14
..B18.15:                       # Preds ..B18.13 ..B18.14
                                # Execution count [9.96e-01]
        movq      %rbx, 944(%rsp)                               #149.59
        movq      %rbx, %rcx                                    #149.59
        cmpq      $15, %rbx                                     #149.59
        ja        ..B18.17      # Prob 22%                      #149.59
                                # LOE rcx rbx rbp r12 r13 r14
..B18.16:                       # Preds ..B18.15
                                # Execution count [7.77e-01]
        movq      (%rbp), %rdi                                  #149.59
        jmp       ..B18.20      # Prob 100%                     #149.59
                                # LOE rcx rbx rbp rdi r12 r13 r14
..B18.17:                       # Preds ..B18.15
                                # Execution count [2.19e-01]
        movq      %rbp, %rdi                                    #149.59
        lea       944(%rsp), %rsi                               #149.59
        xorl      %edx, %edx                                    #149.59
..___tag_value__ZN16BenchmarkHarnessC1EiPPc.523:
#       std::__cxx11::basic_string<char, std::char_traits<char>, std::allocator<char>>::_M_create(std::__cxx11::basic_string<char, std::char_traits<char>, std::allocator<char>> *, std::__cxx11::basic_string<char, std::char_traits<char>, std::allocator<char>>::size_type &, std::__cxx11::basic_string<char, std::char_traits<char>, std::allocator<char>>::size_type)
        call      _ZNSt7__cxx1112basic_stringIcSt11char_traitsIcESaIcEE9_M_createERmm #149.59
..___tag_value__ZN16BenchmarkHarnessC1EiPPc.524:
                                # LOE rax rbx rbp r12 r13 r14
..B18.18:                       # Preds ..B18.17
                                # Execution count [2.19e-01]
        movq      %rax, %rdi                                    #149.59
                                # LOE rbx rbp rdi r12 r13 r14
..B18.19:                       # Preds ..B18.18
                                # Execution count [2.19e-01]
        movq      944(%rsp), %rcx                               #149.59
        movq      %rdi, (%rbp)                                  #149.59
        movq      %rcx, 16(%rbp)                                #149.59
                                # LOE rcx rbx rbp rdi r12 r13 r14
..B18.20:                       # Preds ..B18.19 ..B18.16
                                # Execution count [9.96e-01]
        cmpq      $1, %rbx                                      #149.59
        jne       ..B18.22      # Prob 50%                      #149.59
                                # LOE rcx rbx rbp rdi r12 r13 r14
..B18.21:                       # Preds ..B18.20
                                # Execution count [4.98e-01]
        movq      (%rsp), %rax                                  #149.59[spill]
        movb      (%rax), %dl                                   #149.59
        movb      %dl, (%rdi)                                   #149.59
        movq      (%rbp), %rdi                                  #149.59
        jmp       ..B18.25      # Prob 100%                     #149.59
                                # LOE rcx rbp rdi r12 r13 r14
..B18.22:                       # Preds ..B18.20
                                # Execution count [4.98e-01]
        testq     %rbx, %rbx                                    #149.59
        je        ..B18.25      # Prob 78%                      #149.59
                                # LOE rcx rbx rbp rdi r12 r13 r14
..B18.23:                       # Preds ..B18.22
                                # Execution count [1.10e-01]
        movq      %rbx, %rdx                                    #149.59
        movq      (%rsp), %rsi                                  #149.59[spill]
        call      __intel_avx_rep_memcpy                        #149.59
                                # LOE rbp r12 r13 r14
..B18.24:                       # Preds ..B18.23
                                # Execution count [1.10e-01]
        movq      944(%rsp), %rcx                               #149.59
        movq      (%rbp), %rdi                                  #149.59
                                # LOE rcx rbp rdi r12 r13 r14
..B18.25:                       # Preds ..B18.21 ..B18.24 ..B18.22
                                # Execution count [1.00e+00]
        movq      %rcx, 8(%rbp)                                 #149.59
        lea       96(%r12), %rbx                                #149.59
        movb      $0, (%rdi,%rcx)                               #149.59
        lea       112(%r12), %r15                               #149.59
        movq      %r15, 32(%rsp)                                #149.59[spill]
        movq      %r15, (%rbx)                                  #149.59
        movq      816(%rsp), %rax                               #149.59
        movq      824(%rsp), %r15                               #149.59
        movq      %rax, (%rsp)                                  #149.59[spill]
        lea       (%r15,%rax), %rcx                             #149.59
        testq     %rax, %rax                                    #149.59
        jne       ..B18.27      # Prob 22%                      #149.59
                                # LOE rcx rbx rbp r12 r13 r14 r15
..B18.26:                       # Preds ..B18.25
                                # Execution count [7.80e-01]
        testq     %rcx, %rcx                                    #149.59
        jne       ..B18.193     # Prob 0%                       #149.59
                                # LOE rbx rbp r12 r13 r14 r15
..B18.27:                       # Preds ..B18.25 ..B18.26
                                # Execution count [9.96e-01]
        movq      %r15, 952(%rsp)                               #149.59
        movq      %r15, %rcx                                    #149.59
        cmpq      $15, %r15                                     #149.59
        ja        ..B18.29      # Prob 22%                      #149.59
                                # LOE rcx rbx rbp r12 r13 r14 r15
..B18.28:                       # Preds ..B18.27
                                # Execution count [7.77e-01]
        movq      (%rbx), %rdi                                  #149.59
        jmp       ..B18.32      # Prob 100%                     #149.59
                                # LOE rcx rbx rbp rdi r12 r13 r14 r15
..B18.29:                       # Preds ..B18.27
                                # Execution count [2.19e-01]
        movq      %rbx, %rdi                                    #149.59
        lea       952(%rsp), %rsi                               #149.59
        xorl      %edx, %edx                                    #149.59
..___tag_value__ZN16BenchmarkHarnessC1EiPPc.525:
#       std::__cxx11::basic_string<char, std::char_traits<char>, std::allocator<char>>::_M_create(std::__cxx11::basic_string<char, std::char_traits<char>, std::allocator<char>> *, std::__cxx11::basic_string<char, std::char_traits<char>, std::allocator<char>>::size_type &, std::__cxx11::basic_string<char, std::char_traits<char>, std::allocator<char>>::size_type)
        call      _ZNSt7__cxx1112basic_stringIcSt11char_traitsIcESaIcEE9_M_createERmm #149.59
..___tag_value__ZN16BenchmarkHarnessC1EiPPc.526:
                                # LOE rax rbx rbp r12 r13 r14 r15
..B18.30:                       # Preds ..B18.29
                                # Execution count [2.19e-01]
        movq      %rax, %rdi                                    #149.59
                                # LOE rbx rbp rdi r12 r13 r14 r15
..B18.31:                       # Preds ..B18.30
                                # Execution count [2.19e-01]
        movq      952(%rsp), %rcx                               #149.59
        movq      %rdi, (%rbx)                                  #149.59
        movq      %rcx, 16(%rbx)                                #149.59
                                # LOE rcx rbx rbp rdi r12 r13 r14 r15
..B18.32:                       # Preds ..B18.31 ..B18.28
                                # Execution count [9.96e-01]
        cmpq      $1, %r15                                      #149.59
        jne       ..B18.34      # Prob 50%                      #149.59
                                # LOE rcx rbx rbp rdi r12 r13 r14 r15
..B18.33:                       # Preds ..B18.32
                                # Execution count [4.98e-01]
        movq      (%rsp), %rax                                  #149.59[spill]
        movb      (%rax), %dl                                   #149.59
        movb      %dl, (%rdi)                                   #149.59
        movq      (%rbx), %rdi                                  #149.59
        jmp       ..B18.37      # Prob 100%                     #149.59
                                # LOE rcx rbx rbp rdi r12 r13 r14
..B18.34:                       # Preds ..B18.32
                                # Execution count [4.98e-01]
        testq     %r15, %r15                                    #149.59
        je        ..B18.37      # Prob 78%                      #149.59
                                # LOE rcx rbx rbp rdi r12 r13 r14 r15
..B18.35:                       # Preds ..B18.34
                                # Execution count [1.10e-01]
        movq      %r15, %rdx                                    #149.59
        movq      (%rsp), %rsi                                  #149.59[spill]
        call      __intel_avx_rep_memcpy                        #149.59
                                # LOE rbx rbp r12 r13 r14
..B18.36:                       # Preds ..B18.35
                                # Execution count [1.10e-01]
        movq      952(%rsp), %rcx                               #149.59
        movq      (%rbx), %rdi                                  #149.59
                                # LOE rcx rbx rbp rdi r12 r13 r14
..B18.37:                       # Preds ..B18.33 ..B18.36 ..B18.34
                                # Execution count [1.00e+00]
        movq      %rcx, 8(%rbx)                                 #149.59
        lea       136(%r12), %r15                               #149.59
        xorl      %eax, %eax                                    #149.59
        movb      %al, (%rdi,%rcx)                              #149.59
        movq      %r15, %rdi                                    #149.59
        movl      %eax, -8(%r15)                                #149.59
        movb      $32, -4(%r15)                                 #149.59
#       std::vector<std::vector<TCLAP::Arg *, std::allocator<TCLAP::Arg *>>, std::allocator<std::vector<TCLAP::Arg *, std::allocator<TCLAP::Arg *>>>>::vector(std::vector<std::vector<TCLAP::Arg *, std::allocator<TCLAP::Arg *>>, std::allocator<std::vector<TCLAP::Arg *, std::allocator<TCLAP::Arg *>>>> *)
        call      _ZNSt6vectorIS_IPN5TCLAP3ArgESaIS2_EESaIS4_EEC1Ev #149.59
                                # LOE rbx rbp r12 r13 r14 r15
..B18.38:                       # Preds ..B18.37
                                # Execution count [1.00e+00]
        lea       160(%r12), %rdi                               #149.59
        movq      %rdi, 48(%rsp)                                #149.59[spill]
..___tag_value__ZN16BenchmarkHarnessC1EiPPc.527:
#       std::__cxx11::list<TCLAP::Arg *, std::allocator<TCLAP::Arg *>>::list(std::__cxx11::list<TCLAP::Arg *, std::allocator<TCLAP::Arg *>> *)
        call      _ZNSt7__cxx114listIPN5TCLAP3ArgESaIS3_EEC1Ev  #149.59
..___tag_value__ZN16BenchmarkHarnessC1EiPPc.528:
                                # LOE rbx rbp r12 r13 r14 r15
..B18.39:                       # Preds ..B18.38
                                # Execution count [1.00e+00]
        lea       184(%r12), %rdi                               #149.59
        movq      %rdi, 40(%rsp)                                #149.59[spill]
..___tag_value__ZN16BenchmarkHarnessC1EiPPc.529:
#       std::__cxx11::list<TCLAP::Visitor *, std::allocator<TCLAP::Visitor *>>::list(std::__cxx11::list<TCLAP::Visitor *, std::allocator<TCLAP::Visitor *>> *)
        call      _ZNSt7__cxx114listIPN5TCLAP7VisitorESaIS3_EEC1Ev #149.59
..___tag_value__ZN16BenchmarkHarnessC1EiPPc.530:
                                # LOE rbx rbp r12 r13 r14 r15
..B18.40:                       # Preds ..B18.39
                                # Execution count [1.00e+00]
        movq      %r12, %rdi                                    #149.59
        movb      $1, %al                                       #149.59
        movq      $0, 208(%r12)                                 #149.59
        movb      %al, 216(%r12)                                #149.59
        movb      $0, 217(%r12)                                 #149.59
        movb      %al, 218(%r12)                                #149.59
..___tag_value__ZN16BenchmarkHarnessC1EiPPc.531:
#       TCLAP::CmdLine::_constructor(TCLAP::CmdLine *)
        call      _ZN5TCLAP7CmdLine12_constructorEv             #149.59
..___tag_value__ZN16BenchmarkHarnessC1EiPPc.532:
                                # LOE rbx rbp r12 r13 r14 r15
..B18.41:                       # Preds ..B18.40
                                # Execution count [1.00e+00]
        movq      816(%rsp), %rdi                               #149.9
        lea       832(%rsp), %rax                               #149.9
        movq      %r12, (%r14)                                  #149.9
        cmpq      %rax, %rdi                                    #149.9
        je        ..B18.43      # Prob 78%                      #149.9
                                # LOE rdi r13 r14
..B18.42:                       # Preds ..B18.41
                                # Execution count [2.20e-01]
#       operator delete(void *)
        call      _ZdlPv                                        #149.9
                                # LOE r13 r14
..B18.43:                       # Preds ..B18.42 ..B18.41
                                # Execution count [1.00e+00]
        movq      784(%rsp), %rdi                               #149.9
        lea       800(%rsp), %rax                               #149.9
        cmpq      %rax, %rdi                                    #149.9
        je        ..B18.45      # Prob 78%                      #149.9
                                # LOE rdi r13 r14
..B18.44:                       # Preds ..B18.43
                                # Execution count [2.20e-01]
#       operator delete(void *)
        call      _ZdlPv                                        #149.9
                                # LOE r13 r14
..B18.45:                       # Preds ..B18.44 ..B18.43
                                # Execution count [1.00e+00]
        movl      $.L_2__STRING.2, %esi                         #151.35
        lea       832(%rsp), %rax                               #151.26
        movq      %rax, -16(%rax)                               #151.26
        addq      $-16, %rsp                                    #151.35
	.cfi_def_cfa_offset 1088
	.cfi_escape 0x2e, 0x10
        movq      %rsp, %rbx                                    #151.35
        lea       832(%rsp), %rdi                               #151.35
        movb      16(%rsp), %cl                                 #151.35
        movl      $.L_2__STRING.2+1, %edx                       #151.35
        movb      %cl, (%rbx)                                   #151.35
..___tag_value__ZN16BenchmarkHarnessC1EiPPc.535:
#       std::__cxx11::basic_string<char, std::char_traits<char>, std::allocator<char>>::_M_construct<const char *>(std::__cxx11::basic_string<char, std::char_traits<char>, std::allocator<char>> *, const char *, const char *, std::forward_iterator_tag)
        call      _ZNSt7__cxx1112basic_stringIcSt11char_traitsIcESaIcEE12_M_constructIPKcEEvT_S8_St20forward_iterator_tag #151.35
..___tag_value__ZN16BenchmarkHarnessC1EiPPc.536:
                                # LOE r13 r14
..B18.46:                       # Preds ..B18.45
                                # Execution count [1.00e+00]
        addq      $16, %rsp                                     #151.35
	.cfi_def_cfa_offset 1072
	.cfi_escape 0x2e, 0x00
                                # LOE r13 r14
..B18.47:                       # Preds ..B18.46
                                # Execution count [1.00e+00]
        movl      $.L_2__STRING.3, %esi                         #151.40
        lea       800(%rsp), %rax                               #151.35
        movq      %rax, -16(%rax)                               #151.35
        addq      $-16, %rsp                                    #151.40
	.cfi_def_cfa_offset 1088
	.cfi_escape 0x2e, 0x10
        movq      %rsp, %rbx                                    #151.40
        lea       800(%rsp), %rdi                               #151.40
        movb      16(%rsp), %cl                                 #151.40
        movl      $.L_2__STRING.3+4, %edx                       #151.40
        movb      %cl, (%rbx)                                   #151.40
..___tag_value__ZN16BenchmarkHarnessC1EiPPc.541:
#       std::__cxx11::basic_string<char, std::char_traits<char>, std::allocator<char>>::_M_construct<const char *>(std::__cxx11::basic_string<char, std::char_traits<char>, std::allocator<char>> *, const char *, const char *, std::forward_iterator_tag)
        call      _ZNSt7__cxx1112basic_stringIcSt11char_traitsIcESaIcEE12_M_constructIPKcEEvT_S8_St20forward_iterator_tag #151.40
..___tag_value__ZN16BenchmarkHarnessC1EiPPc.542:
                                # LOE r13 r14
..B18.48:                       # Preds ..B18.47
                                # Execution count [1.00e+00]
        addq      $16, %rsp                                     #151.40
	.cfi_def_cfa_offset 1072
	.cfi_escape 0x2e, 0x00
                                # LOE r13 r14
..B18.49:                       # Preds ..B18.48
                                # Execution count [1.00e+00]
        movl      $.L_2__STRING.4, %esi                         #151.48
        lea       864(%rsp), %rbx                               #151.48
        movq      %rbx, -16(%rbx)                               #151.40
        addq      $-16, %rsp                                    #151.48
	.cfi_def_cfa_offset 1088
	.cfi_escape 0x2e, 0x10
        movq      %rsp, %rcx                                    #151.48
        lea       864(%rsp), %rdi                               #151.48
        movb      16(%rsp), %al                                 #151.48
        movl      $.L_2__STRING.4+31, %edx                      #151.48
        movb      %al, (%rcx)                                   #151.48
..___tag_value__ZN16BenchmarkHarnessC1EiPPc.547:
#       std::__cxx11::basic_string<char, std::char_traits<char>, std::allocator<char>>::_M_construct<const char *>(std::__cxx11::basic_string<char, std::char_traits<char>, std::allocator<char>> *, const char *, const char *, std::forward_iterator_tag)
        call      _ZNSt7__cxx1112basic_stringIcSt11char_traitsIcESaIcEE12_M_constructIPKcEEvT_S8_St20forward_iterator_tag #151.48
..___tag_value__ZN16BenchmarkHarnessC1EiPPc.548:
                                # LOE rbx r13 r14
..B18.51:                       # Preds ..B18.49
                                # Execution count [1.00e+00]
        xorl      %r8d, %r8d                                    #151.48
        xorl      %r9d, %r9d                                    #151.48
        lea       296(%rsp), %rdi                               #151.48
        lea       832(%rsp), %rsi                               #151.48
        lea       800(%rsp), %rdx                               #151.48
        movq      $0, (%rsp)                                    #151.48
        lea       864(%rsp), %rcx                               #151.48
..___tag_value__ZN16BenchmarkHarnessC1EiPPc.549:
#       TCLAP::Arg::Arg(TCLAP::Arg *, const std::__cxx11::string &, const std::__cxx11::string &, const std::__cxx11::string &, bool, bool, TCLAP::Visitor *)
        call      _ZN5TCLAP3ArgC1ERKNSt7__cxx1112basic_stringIcSt11char_traitsIcESaIcEEES8_S8_bbPNS_7VisitorE #151.48
..___tag_value__ZN16BenchmarkHarnessC1EiPPc.550:
                                # LOE rbx r13 r14
..B18.52:                       # Preds ..B18.51
                                # Execution count [1.00e+00]
        addq      $16, %rsp                                     #151.48
	.cfi_def_cfa_offset 1072
	.cfi_escape 0x2e, 0x00
                                # LOE rbx r13 r14
..B18.53:                       # Preds ..B18.52
                                # Execution count [1.00e+00]
        movq      848(%rsp), %rdi                               #151.26
        movl      $_ZTVN5TCLAP9SwitchArgE+16, %ebp              #151.48
        xorl      %eax, %eax                                    #151.26
        movq      %rbp, 280(%rsp)                               #151.26
        movb      %al, 443(%rsp)                                #151.26
        movb      %al, 444(%rsp)                                #151.26
        cmpq      %rbx, %rdi                                    #151.26
        je        ..B18.55      # Prob 78%                      #151.26
                                # LOE rbx rbp rdi r13 r14
..B18.54:                       # Preds ..B18.53
                                # Execution count [2.20e-01]
#       operator delete(void *)
        call      _ZdlPv                                        #151.26
                                # LOE rbx rbp r13 r14
..B18.55:                       # Preds ..B18.54 ..B18.53
                                # Execution count [1.00e+00]
        movq      784(%rsp), %rdi                               #151.26
        lea       800(%rsp), %rax                               #151.26
        cmpq      %rax, %rdi                                    #151.26
        je        ..B18.57      # Prob 78%                      #151.26
                                # LOE rbx rbp rdi r13 r14
..B18.56:                       # Preds ..B18.55
                                # Execution count [2.20e-01]
#       operator delete(void *)
        call      _ZdlPv                                        #151.26
                                # LOE rbx rbp r13 r14
..B18.57:                       # Preds ..B18.56 ..B18.55
                                # Execution count [1.00e+00]
        movq      816(%rsp), %rdi                               #151.26
        lea       832(%rsp), %rax                               #151.26
        cmpq      %rax, %rdi                                    #151.26
        je        ..B18.59      # Prob 78%                      #151.26
                                # LOE rbx rbp rdi r13 r14
..B18.58:                       # Preds ..B18.57
                                # Execution count [2.20e-01]
#       operator delete(void *)
        call      _ZdlPv                                        #151.26
                                # LOE rbx rbp r13 r14
..B18.59:                       # Preds ..B18.58 ..B18.57
                                # Execution count [1.00e+00]
        movq      (%r14), %rdi                                  #152.9
        lea       280(%rsp), %rsi                               #152.18
        movq      (%rdi), %rax                                  #152.18
..___tag_value__ZN16BenchmarkHarnessC1EiPPc.553:
        call      *16(%rax)                                     #152.18
..___tag_value__ZN16BenchmarkHarnessC1EiPPc.554:
                                # LOE rbx rbp r13 r14
..B18.60:                       # Preds ..B18.59
                                # Execution count [1.00e+00]
        movq      %rbx, 848(%rsp)                               #154.26
        addq      $-16, %rsp                                    #154.41
	.cfi_def_cfa_offset 1088
	.cfi_escape 0x2e, 0x10
        movq      %rsp, %rcx                                    #154.41
        lea       864(%rsp), %rdi                               #154.41
        movb      16(%rsp), %al                                 #154.41
        movl      $.L_2__STRING.5, %esi                         #154.41
        movl      $.L_2__STRING.5+1, %edx                       #154.41
        movb      %al, (%rcx)                                   #154.41
..___tag_value__ZN16BenchmarkHarnessC1EiPPc.557:
#       std::__cxx11::basic_string<char, std::char_traits<char>, std::allocator<char>>::_M_construct<const char *>(std::__cxx11::basic_string<char, std::char_traits<char>, std::allocator<char>> *, const char *, const char *, std::forward_iterator_tag)
        call      _ZNSt7__cxx1112basic_stringIcSt11char_traitsIcESaIcEE12_M_constructIPKcEEvT_S8_St20forward_iterator_tag #154.41
..___tag_value__ZN16BenchmarkHarnessC1EiPPc.558:
                                # LOE rbx rbp r13 r14
..B18.61:                       # Preds ..B18.60
                                # Execution count [1.00e+00]
        addq      $16, %rsp                                     #154.41
	.cfi_def_cfa_offset 1072
	.cfi_escape 0x2e, 0x00
                                # LOE rbx rbp r13 r14
..B18.62:                       # Preds ..B18.61
                                # Execution count [1.00e+00]
        movl      $.L_2__STRING.6, %esi                         #154.46
        lea       832(%rsp), %rax                               #154.41
        movq      %rax, -16(%rax)                               #154.41
        addq      $-16, %rsp                                    #154.46
	.cfi_def_cfa_offset 1088
	.cfi_escape 0x2e, 0x10
        movq      %rsp, %r8                                     #154.46
        lea       832(%rsp), %rdi                               #154.46
        movb      16(%rsp), %cl                                 #154.46
        movl      $.L_2__STRING.6+10, %edx                      #154.46
        movb      %cl, (%r8)                                    #154.46
..___tag_value__ZN16BenchmarkHarnessC1EiPPc.563:
#       std::__cxx11::basic_string<char, std::char_traits<char>, std::allocator<char>>::_M_construct<const char *>(std::__cxx11::basic_string<char, std::char_traits<char>, std::allocator<char>> *, const char *, const char *, std::forward_iterator_tag)
        call      _ZNSt7__cxx1112basic_stringIcSt11char_traitsIcESaIcEE12_M_constructIPKcEEvT_S8_St20forward_iterator_tag #154.46
..___tag_value__ZN16BenchmarkHarnessC1EiPPc.564:
                                # LOE rbx rbp r13 r14
..B18.63:                       # Preds ..B18.62
                                # Execution count [1.00e+00]
        addq      $16, %rsp                                     #154.46
	.cfi_def_cfa_offset 1072
	.cfi_escape 0x2e, 0x00
                                # LOE rbx rbp r13 r14
..B18.64:                       # Preds ..B18.63
                                # Execution count [1.00e+00]
        movl      $.L_2__STRING.7, %esi                         #154.60
        lea       800(%rsp), %rax                               #154.46
        movq      %rax, -16(%rax)                               #154.46
        addq      $-16, %rsp                                    #154.60
	.cfi_def_cfa_offset 1088
	.cfi_escape 0x2e, 0x10
        movq      %rsp, %r8                                     #154.60
        lea       800(%rsp), %rdi                               #154.60
        movb      16(%rsp), %cl                                 #154.60
        movl      $.L_2__STRING.7+41, %edx                      #154.60
        movb      %cl, (%r8)                                    #154.60
..___tag_value__ZN16BenchmarkHarnessC1EiPPc.569:
#       std::__cxx11::basic_string<char, std::char_traits<char>, std::allocator<char>>::_M_construct<const char *>(std::__cxx11::basic_string<char, std::char_traits<char>, std::allocator<char>> *, const char *, const char *, std::forward_iterator_tag)
        call      _ZNSt7__cxx1112basic_stringIcSt11char_traitsIcESaIcEE12_M_constructIPKcEEvT_S8_St20forward_iterator_tag #154.60
..___tag_value__ZN16BenchmarkHarnessC1EiPPc.570:
                                # LOE rbx rbp r13 r14
..B18.66:                       # Preds ..B18.64
                                # Execution count [1.00e+00]
        xorl      %r8d, %r8d                                    #154.60
        xorl      %r9d, %r9d                                    #154.60
        lea       464(%rsp), %rdi                               #154.60
        lea       864(%rsp), %rsi                               #154.60
        lea       832(%rsp), %rdx                               #154.60
        movq      $0, (%rsp)                                    #154.60
        lea       800(%rsp), %rcx                               #154.60
..___tag_value__ZN16BenchmarkHarnessC1EiPPc.571:
#       TCLAP::Arg::Arg(TCLAP::Arg *, const std::__cxx11::string &, const std::__cxx11::string &, const std::__cxx11::string &, bool, bool, TCLAP::Visitor *)
        call      _ZN5TCLAP3ArgC1ERKNSt7__cxx1112basic_stringIcSt11char_traitsIcESaIcEEES8_S8_bbPNS_7VisitorE #154.60
..___tag_value__ZN16BenchmarkHarnessC1EiPPc.572:
                                # LOE rbx rbp r13 r14
..B18.67:                       # Preds ..B18.66
                                # Execution count [1.00e+00]
        addq      $16, %rsp                                     #154.60
	.cfi_def_cfa_offset 1072
	.cfi_escape 0x2e, 0x00
                                # LOE rbx rbp r13 r14
..B18.68:                       # Preds ..B18.67
                                # Execution count [1.00e+00]
        movq      784(%rsp), %rdi                               #154.26
        lea       800(%rsp), %rdx                               #154.26
        xorl      %eax, %eax                                    #154.26
        movq      %rbp, -352(%rdx)                              #154.26
        movb      %al, -189(%rdx)                               #154.26
        movb      %al, -188(%rdx)                               #154.26
        cmpq      %rdx, %rdi                                    #154.26
        je        ..B18.70      # Prob 78%                      #154.26
                                # LOE rbx rbp rdi r13 r14
..B18.69:                       # Preds ..B18.68
                                # Execution count [2.20e-01]
#       operator delete(void *)
        call      _ZdlPv                                        #154.26
                                # LOE rbx rbp r13 r14
..B18.70:                       # Preds ..B18.69 ..B18.68
                                # Execution count [1.00e+00]
        movq      816(%rsp), %rdi                               #154.26
        lea       832(%rsp), %rax                               #154.26
        cmpq      %rax, %rdi                                    #154.26
        je        ..B18.72      # Prob 78%                      #154.26
                                # LOE rbx rbp rdi r13 r14
..B18.71:                       # Preds ..B18.70
                                # Execution count [2.20e-01]
#       operator delete(void *)
        call      _ZdlPv                                        #154.26
                                # LOE rbx rbp r13 r14
..B18.72:                       # Preds ..B18.71 ..B18.70
                                # Execution count [1.00e+00]
        movq      848(%rsp), %rdi                               #154.26
        cmpq      %rbx, %rdi                                    #154.26
        je        ..B18.74      # Prob 78%                      #154.26
                                # LOE rbx rbp rdi r13 r14
..B18.73:                       # Preds ..B18.72
                                # Execution count [2.20e-01]
#       operator delete(void *)
        call      _ZdlPv                                        #154.26
                                # LOE rbx rbp r13 r14
..B18.74:                       # Preds ..B18.73 ..B18.72
                                # Execution count [1.00e+00]
        movq      (%r14), %rdi                                  #155.9
        lea       448(%rsp), %rsi                               #155.18
        movq      (%rdi), %rax                                  #155.18
..___tag_value__ZN16BenchmarkHarnessC1EiPPc.575:
        call      *16(%rax)                                     #155.18
..___tag_value__ZN16BenchmarkHarnessC1EiPPc.576:
                                # LOE rbx rbp r13 r14
..B18.75:                       # Preds ..B18.74
                                # Execution count [1.00e+00]
        movq      %rbx, 848(%rsp)                               #157.26
        addq      $-16, %rsp                                    #157.41
	.cfi_def_cfa_offset 1088
	.cfi_escape 0x2e, 0x10
        movq      %rsp, %rcx                                    #157.41
        lea       864(%rsp), %rdi                               #157.41
        movb      16(%rsp), %al                                 #157.41
        movl      $.L_2__STRING.8, %esi                         #157.41
        movl      $.L_2__STRING.8+1, %edx                       #157.41
        movb      %al, (%rcx)                                   #157.41
..___tag_value__ZN16BenchmarkHarnessC1EiPPc.579:
#       std::__cxx11::basic_string<char, std::char_traits<char>, std::allocator<char>>::_M_construct<const char *>(std::__cxx11::basic_string<char, std::char_traits<char>, std::allocator<char>> *, const char *, const char *, std::forward_iterator_tag)
        call      _ZNSt7__cxx1112basic_stringIcSt11char_traitsIcESaIcEE12_M_constructIPKcEEvT_S8_St20forward_iterator_tag #157.41
..___tag_value__ZN16BenchmarkHarnessC1EiPPc.580:
                                # LOE rbx rbp r13 r14
..B18.76:                       # Preds ..B18.75
                                # Execution count [1.00e+00]
        addq      $16, %rsp                                     #157.41
	.cfi_def_cfa_offset 1072
	.cfi_escape 0x2e, 0x00
                                # LOE rbx rbp r13 r14
..B18.77:                       # Preds ..B18.76
                                # Execution count [1.00e+00]
        movl      $.L_2__STRING.9, %esi                         #157.46
        lea       832(%rsp), %rax                               #157.41
        movq      %rax, -16(%rax)                               #157.41
        addq      $-16, %rsp                                    #157.46
	.cfi_def_cfa_offset 1088
	.cfi_escape 0x2e, 0x10
        movq      %rsp, %r8                                     #157.46
        lea       832(%rsp), %rdi                               #157.46
        movb      16(%rsp), %cl                                 #157.46
        movl      $.L_2__STRING.9+4, %edx                       #157.46
        movb      %cl, (%r8)                                    #157.46
..___tag_value__ZN16BenchmarkHarnessC1EiPPc.585:
#       std::__cxx11::basic_string<char, std::char_traits<char>, std::allocator<char>>::_M_construct<const char *>(std::__cxx11::basic_string<char, std::char_traits<char>, std::allocator<char>> *, const char *, const char *, std::forward_iterator_tag)
        call      _ZNSt7__cxx1112basic_stringIcSt11char_traitsIcESaIcEE12_M_constructIPKcEEvT_S8_St20forward_iterator_tag #157.46
..___tag_value__ZN16BenchmarkHarnessC1EiPPc.586:
                                # LOE rbx rbp r13 r14
..B18.78:                       # Preds ..B18.77
                                # Execution count [1.00e+00]
        addq      $16, %rsp                                     #157.46
	.cfi_def_cfa_offset 1072
	.cfi_escape 0x2e, 0x00
                                # LOE rbx rbp r13 r14
..B18.79:                       # Preds ..B18.78
                                # Execution count [1.00e+00]
        movl      $.L_2__STRING.10, %esi                        #157.54
        lea       800(%rsp), %rax                               #157.46
        movq      %rax, -16(%rax)                               #157.46
        addq      $-16, %rsp                                    #157.54
	.cfi_def_cfa_offset 1088
	.cfi_escape 0x2e, 0x10
        movq      %rsp, %r8                                     #157.54
        lea       800(%rsp), %rdi                               #157.54
        movb      16(%rsp), %cl                                 #157.54
        movl      $.L_2__STRING.10+29, %edx                     #157.54
        movb      %cl, (%r8)                                    #157.54
..___tag_value__ZN16BenchmarkHarnessC1EiPPc.591:
#       std::__cxx11::basic_string<char, std::char_traits<char>, std::allocator<char>>::_M_construct<const char *>(std::__cxx11::basic_string<char, std::char_traits<char>, std::allocator<char>> *, const char *, const char *, std::forward_iterator_tag)
        call      _ZNSt7__cxx1112basic_stringIcSt11char_traitsIcESaIcEE12_M_constructIPKcEEvT_S8_St20forward_iterator_tag #157.54
..___tag_value__ZN16BenchmarkHarnessC1EiPPc.592:
                                # LOE rbx rbp r13 r14
..B18.81:                       # Preds ..B18.79
                                # Execution count [1.00e+00]
        xorl      %r8d, %r8d                                    #157.54
        xorl      %r9d, %r9d                                    #157.54
        lea       632(%rsp), %rdi                               #157.54
        lea       864(%rsp), %rsi                               #157.54
        lea       832(%rsp), %rdx                               #157.54
        movq      $0, (%rsp)                                    #157.54
        lea       800(%rsp), %rcx                               #157.54
..___tag_value__ZN16BenchmarkHarnessC1EiPPc.593:
#       TCLAP::Arg::Arg(TCLAP::Arg *, const std::__cxx11::string &, const std::__cxx11::string &, const std::__cxx11::string &, bool, bool, TCLAP::Visitor *)
        call      _ZN5TCLAP3ArgC1ERKNSt7__cxx1112basic_stringIcSt11char_traitsIcESaIcEEES8_S8_bbPNS_7VisitorE #157.54
..___tag_value__ZN16BenchmarkHarnessC1EiPPc.594:
                                # LOE rbx rbp r13 r14
..B18.82:                       # Preds ..B18.81
                                # Execution count [1.00e+00]
        addq      $16, %rsp                                     #157.54
	.cfi_def_cfa_offset 1072
	.cfi_escape 0x2e, 0x00
                                # LOE rbx rbp r13 r14
..B18.83:                       # Preds ..B18.82
                                # Execution count [1.00e+00]
        movq      784(%rsp), %rdi                               #157.26
        lea       800(%rsp), %rdx                               #157.26
        xorl      %eax, %eax                                    #157.26
        movq      %rbp, -184(%rdx)                              #157.26
        movb      %al, -21(%rdx)                                #157.26
        movb      %al, -20(%rdx)                                #157.26
        cmpq      %rdx, %rdi                                    #157.26
        je        ..B18.85      # Prob 78%                      #157.26
                                # LOE rbx rdi r13 r14
..B18.84:                       # Preds ..B18.83
                                # Execution count [2.20e-01]
#       operator delete(void *)
        call      _ZdlPv                                        #157.26
                                # LOE rbx r13 r14
..B18.85:                       # Preds ..B18.84 ..B18.83
                                # Execution count [1.00e+00]
        movq      816(%rsp), %rdi                               #157.26
        lea       832(%rsp), %rax                               #157.26
        cmpq      %rax, %rdi                                    #157.26
        je        ..B18.87      # Prob 78%                      #157.26
                                # LOE rbx rdi r13 r14
..B18.86:                       # Preds ..B18.85
                                # Execution count [2.20e-01]
#       operator delete(void *)
        call      _ZdlPv                                        #157.26
                                # LOE rbx r13 r14
..B18.87:                       # Preds ..B18.86 ..B18.85
                                # Execution count [1.00e+00]
        movq      848(%rsp), %rdi                               #157.26
        cmpq      %rbx, %rdi                                    #157.26
        je        ..B18.89      # Prob 78%                      #157.26
                                # LOE rbx rdi r13 r14
..B18.88:                       # Preds ..B18.87
                                # Execution count [2.20e-01]
#       operator delete(void *)
        call      _ZdlPv                                        #157.26
                                # LOE rbx r13 r14
..B18.89:                       # Preds ..B18.88 ..B18.87
                                # Execution count [1.00e+00]
        movq      (%r14), %rdi                                  #158.9
        lea       616(%rsp), %rsi                               #158.18
        movq      (%rdi), %rax                                  #158.18
..___tag_value__ZN16BenchmarkHarnessC1EiPPc.597:
        call      *16(%rax)                                     #158.18
..___tag_value__ZN16BenchmarkHarnessC1EiPPc.598:
                                # LOE rbx r13 r14
..B18.90:                       # Preds ..B18.89
                                # Execution count [1.00e+00]
        movq      %rbx, 848(%rsp)                               #160.38
        addq      $-16, %rsp                                    #160.51
	.cfi_def_cfa_offset 1088
	.cfi_escape 0x2e, 0x10
        movq      %rsp, %rcx                                    #160.51
        lea       864(%rsp), %rdi                               #160.51
        movb      16(%rsp), %al                                 #160.51
        movl      $.L_2__STRING.11, %esi                        #160.51
        movl      $.L_2__STRING.11+1, %edx                      #160.51
        movb      %al, (%rcx)                                   #160.51
..___tag_value__ZN16BenchmarkHarnessC1EiPPc.601:
#       std::__cxx11::basic_string<char, std::char_traits<char>, std::allocator<char>>::_M_construct<const char *>(std::__cxx11::basic_string<char, std::char_traits<char>, std::allocator<char>> *, const char *, const char *, std::forward_iterator_tag)
        call      _ZNSt7__cxx1112basic_stringIcSt11char_traitsIcESaIcEE12_M_constructIPKcEEvT_S8_St20forward_iterator_tag #160.51
..___tag_value__ZN16BenchmarkHarnessC1EiPPc.602:
                                # LOE rbx r13 r14
..B18.91:                       # Preds ..B18.90
                                # Execution count [1.00e+00]
        addq      $16, %rsp                                     #160.51
	.cfi_def_cfa_offset 1072
	.cfi_escape 0x2e, 0x00
                                # LOE rbx r13 r14
..B18.92:                       # Preds ..B18.91
                                # Execution count [1.00e+00]
        movl      $.L_2__STRING.12, %esi                        #160.56
        lea       832(%rsp), %rax                               #160.51
        movq      %rax, -16(%rax)                               #160.51
        addq      $-16, %rsp                                    #160.56
	.cfi_def_cfa_offset 1088
	.cfi_escape 0x2e, 0x10
        movq      %rsp, %rbp                                    #160.56
        lea       832(%rsp), %rdi                               #160.56
        movb      16(%rsp), %cl                                 #160.56
        movl      $.L_2__STRING.12+6, %edx                      #160.56
        movb      %cl, (%rbp)                                   #160.56
..___tag_value__ZN16BenchmarkHarnessC1EiPPc.607:
#       std::__cxx11::basic_string<char, std::char_traits<char>, std::allocator<char>>::_M_construct<const char *>(std::__cxx11::basic_string<char, std::char_traits<char>, std::allocator<char>> *, const char *, const char *, std::forward_iterator_tag)
        call      _ZNSt7__cxx1112basic_stringIcSt11char_traitsIcESaIcEE12_M_constructIPKcEEvT_S8_St20forward_iterator_tag #160.56
..___tag_value__ZN16BenchmarkHarnessC1EiPPc.608:
                                # LOE rbx r13 r14
..B18.93:                       # Preds ..B18.92
                                # Execution count [1.00e+00]
        addq      $16, %rsp                                     #160.56
	.cfi_def_cfa_offset 1072
	.cfi_escape 0x2e, 0x00
                                # LOE rbx r13 r14
..B18.94:                       # Preds ..B18.93
                                # Execution count [1.00e+00]
        movl      $.L_2__STRING.13, %esi                        #160.66
        lea       800(%rsp), %rax                               #160.56
        movq      %rax, -16(%rax)                               #160.56
        addq      $-16, %rsp                                    #160.66
	.cfi_def_cfa_offset 1088
	.cfi_escape 0x2e, 0x10
        movq      %rsp, %rbp                                    #160.66
        lea       800(%rsp), %rdi                               #160.66
        movb      16(%rsp), %cl                                 #160.66
        movl      $.L_2__STRING.13+21, %edx                     #160.66
        movb      %cl, (%rbp)                                   #160.66
..___tag_value__ZN16BenchmarkHarnessC1EiPPc.613:
#       std::__cxx11::basic_string<char, std::char_traits<char>, std::allocator<char>>::_M_construct<const char *>(std::__cxx11::basic_string<char, std::char_traits<char>, std::allocator<char>> *, const char *, const char *, std::forward_iterator_tag)
        call      _ZNSt7__cxx1112basic_stringIcSt11char_traitsIcESaIcEE12_M_constructIPKcEEvT_S8_St20forward_iterator_tag #160.66
..___tag_value__ZN16BenchmarkHarnessC1EiPPc.614:
                                # LOE rbx r13 r14
..B18.95:                       # Preds ..B18.94
                                # Execution count [1.00e+00]
        addq      $16, %rsp                                     #160.66
	.cfi_def_cfa_offset 1072
	.cfi_escape 0x2e, 0x00
                                # LOE rbx r13 r14
..B18.96:                       # Preds ..B18.95
                                # Execution count [1.00e+00]
        movl      $.L_2__STRING.0, %esi                         #160.98
        lea       896(%rsp), %rax                               #160.98
        movq      %rax, -16(%rax)                               #160.91
        addq      $-16, %rsp                                    #160.98
	.cfi_def_cfa_offset 1088
	.cfi_escape 0x2e, 0x10
        movq      %rsp, %rbp                                    #160.98
        lea       896(%rsp), %rdi                               #160.98
        movb      16(%rsp), %cl                                 #160.98
        movq      %rsi, %rdx                                    #160.98
        movb      %cl, (%rbp)                                   #160.98
..___tag_value__ZN16BenchmarkHarnessC1EiPPc.619:
#       std::__cxx11::basic_string<char, std::char_traits<char>, std::allocator<char>>::_M_construct<const char *>(std::__cxx11::basic_string<char, std::char_traits<char>, std::allocator<char>> *, const char *, const char *, std::forward_iterator_tag)
        call      _ZNSt7__cxx1112basic_stringIcSt11char_traitsIcESaIcEE12_M_constructIPKcEEvT_S8_St20forward_iterator_tag #160.98
